(dp1
S'output'
p2
S'missing "pass" in view'
p3
sS'layer'
p4
S'ParserContainer'
p5
sS'code'
p6
S'response.write(\'<!DOCTYPE html>\\n<!--[if (gt IE 9)|!(IE)]><!--> <html class="no-js" lang="\', escape=False)\nresponse.write(T.accepted_language or \'en\')\nresponse.write(\'"> <!--<![endif]-->\\n  <head>\\n    <meta charset="utf-8">\\n    <!-- www.phpied.com/conditional-comments-block-downloads/ -->\\n    <!-- Always force latest IE rendering engine\\n         (even in intranet) & Chrome Frame\\n         Remove this if you use the .htaccess -->\\n    <meta http-equiv="X-UA-Compatible" content="IE=edge\', escape=False)\nresponse.write(not request.is_local and \',chrome=1\' or \'\')\nresponse.write(\'">\\n    <!--  Mobile Viewport Fix\\n          j.mp/mobileviewport & davidbcalhoun.com/2010/viewport-metatag\\n          device-width: Occupy full width of the screen in its current orientation\\n          initial-scale = 1.0 retains dimensions instead of zooming out if page height > device height\\n          user-scalable = yes allows the user to zoom in -->\\n    <meta name="viewport" content="width=device-width, initial-scale=1.0">\\n    <title>FS New Credit</title>\\n    <!-- http://dev.w3.org/html5/markup/meta.name.html -->\\n    <meta name="application-name" content="FSCredit">\\n    <!-- Speaking of Google, don\\\'t forget to set your site up:\\n         http://google.com/webmasters -->\\n    <meta name="google-site-verification" content="">\\n    <!-- include stylesheets -->\\n      \\n      <meta name="viewport" content="width=device-width, initial-scale=1, shrink-to-fit=no">\\n      \\n    <link rel="stylesheet" href="https://cdnjs.cloudflare.com/ajax/libs/font-awesome/4.7.0/css/font-awesome.min.css"/>\\n    <link rel="stylesheet" href="\', escape=False)\nresponse.write(URL(\'static\',\'css/web2py-bootstrap4.css\'))\nresponse.write(\'"/>\\n    <link rel="stylesheet" href="\', escape=False)\nresponse.write(URL(\'static\',\'css/bootstrap.min.css\'))\nresponse.write(\'"/>\\n      \\n    <link rel="shortcut icon" href="\', escape=False)\nresponse.write(URL(\'static\',\'images/DOC_29680.ico\'))\nresponse.write(\'" type="image/x-icon">\\n    <link rel="apple-touch-icon" href="\', escape=False)\nresponse.write(URL(\'static\',\'images/DOC_29680.png\'))\nresponse.write(\'">\\n      \\n      <link href="https://fonts.googleapis.com/css?family=Lato:300,400,700,300italic,400italic,700italic" rel="stylesheet" type="text/css">\\n    <!-- All JavaScript at the bottom, except for Modernizr which enables\\n         HTML5 elements & feature detects -->\\n    <script src="\', escape=False)\nresponse.write(URL(\'static\',\'js/modernizr-2.8.3.min.js\'))\nresponse.write(\'"></script>\\n    <!-- Favicons -->\\n    \', escape=False)\nresponse.write(\'<script type="text/javascript"><!--\\n    // These variables are used by the web2py_ajax_init function in web2py_ajax.js (which is loaded below).\\n    \', escape=False)\nresponse.write(ASSIGNJS(\nw2p_ajax_confirm_message = T(\'Are you sure you want to delete this object?\'),\nw2p_ajax_disable_with_message = T(\'Working...\'),\nw2p_ajax_date_format = T(\'%Y-%m-%d\'),\nw2p_ajax_datetime_format = T(\'%Y-%m-%d %H:%M:%S\'),\najax_error_500 = T.M(\'An error occured, please [[reload %s]] the page\') % URL(args=request.args, vars=request.get_vars)\n))\nresponse.write(\'\\n    //--></script>\\n\', escape=False)\nresponse.files.insert(0,URL(\'static\',\'js/jquery.js\'))\nresponse.files.insert(1,URL(\'static\',\'css/calendar.css\'))\nresponse.files.insert(2,URL(\'static\',\'js/calendar.js\'))\nresponse.files.insert(3,URL(\'static\',\'js/web2py.js\'))\nresponse.include_meta()\nresponse.include_files()\nresponse.write(\'\\n\', escape=False)\nresponse.write(\' <!-- this includes jquery.js, calendar.js/.css and web2py.js -->\\n    \', escape=False)\nresponse.write(\'\\n  </head>\\n  <body>\\n      <style  type="text/css">\\n    @media print{\\n        .btn{\\n             display: none;\\n        }\\n        #noprint { display:none; } \\n      a:link{font:15px "verdana"; color:#8B4513; text-decoration:none;}\\n\\na:hover{font:20px "verdana"; color:black; text-decoration:underline;}\\n    }\\n      </style>\\n    <div class="w2p_flash alert alert-dismissable">\', escape=False)\nresponse.write(response.flash or \'\')\nresponse.write(\'</div>\\n    <!-- Navbar ======================================= -->\\n    <nav class="navbar navbar-light navbar-expand-md bg-faded justify-content-center navbar-dark fixed-top bg-dark p-3">\\n       <a href="#" class="navbar-brand d-flex w-50 mr-auto">FS New Credit</a>\\n       <button class="navbar-toggler" type="button" data-toggle="collapse" data-target="#navbarNavDropdown" aria-controls="navbarNavDropdown" aria-expanded="false" aria-label="Toggle navigation">\\n         <span class="navbar-toggler-icon"></span>\\n       </button>\\n       <div class="navbar-collapse collapse w-100" id="navbarNavDropdown">\\n         <ul class="navbar-nav w-100 justify-content-center">\\n          \', escape=False)\nfor _item in response.menu or []:\n    response.write(\'\\n          \', escape=False)\n    if len(_item)<4 or not _item[3]:\n        response.write(\'\\n          <li class="nav-item \', escape=False)\n        if _item[1]:\n            response.write(\'active\', escape=False)\n            pass\n        response.write(\'">\\n            <a class="nav-link" href="\', escape=False)\n        response.write(_item[2])\n        response.write(\'">\', escape=False)\n        response.write(_item[0])\n        response.write(\'</a>\\n          </li>\\n          \', escape=False)\n    else:\n        response.write(\'\\n          <li class="nav-item dropdown">\\n            <a class="nav-link dropdown-toggle" href="\', escape=False)\n        response.write(_item[2])\n        response.write(\'" data-toggle="dropdown" aria-haspopup="true" aria-expanded="false">\', escape=False)\n        response.write(_item[0])\n        response.write(\'</a>\\n            <div class="dropdown-menu">\\n              \', escape=False)\n        for _subitem in _item[3]:\n            response.write(\'\\n              <a class="dropdown-item" href="\', escape=False)\n            response.write(_subitem[2])\n            response.write(\'">\', escape=False)\n            response.write(_subitem[0])\n            response.write(\'</a>\\n              \', escape=False)\n            pass\n        response.write(\'\\n            </div>\\n          </li>\\n          \', escape=False)\n        pass\n    response.write(\'\\n          \', escape=False)\n    pass\nresponse.write(\'\\n        </ul>\\n         \\n        \', escape=False)\nif \'auth\' in globals():\n    response.write(\'\\n        <ul class="nav navbar-nav ml-auto w-100 justify-content-end">\\n          <li class="nav-item dropdown">\\n            <a class="nav-link dropdown-toggle" href="#" data-toggle="dropdown" aria-haspopup="true" aria-expanded="false">\\n              \', escape=False)\n    if auth.user:\n        response.write(auth.user.first_name)\n    else:\n        response.write(\'LOGIN\', escape=False)\n        pass\n    response.write(\'\\n            </a>\\n            <div class="dropdown-menu dropdown-menu-right">\\n              \', escape=False)\n    if auth.user:\n        response.write(\'\\n              <a class="dropdown-item" href="\', escape=False)\n        response.write(URL(\'default\',\'user/profile\'))\n        response.write(\'">\', escape=False)\n        response.write(T(\'Profile\'))\n        response.write(\'</a>\\n              \', escape=False)\n        if \'change_password\' not in auth.settings.actions_disabled:\n            response.write(\'\\n              <a class="dropdown-item" href="\', escape=False)\n            response.write(URL(\'default\',\'user/change_password\'))\n            response.write(\'">\', escape=False)\n            response.write(T(\'Change Password\'))\n            response.write(\'</a>\\n              \', escape=False)\n            pass\n        response.write(\'\\n              <a class="dropdown-item" href="\', escape=False)\n        response.write(URL(\'default\',\'user/logout\'))\n        response.write(\'">\', escape=False)\n        response.write(T(\'Logout\'))\n        response.write(\'</a>\\n              \', escape=False)\n    else:\n        response.write(\'\\n              <a class="dropdown-item" href="\', escape=False)\n        response.write(URL(\'default\',\'user/login\'))\n        response.write(\'">\', escape=False)\n        response.write(T(\'Login\'))\n        response.write(\'</a>\\n              \', escape=False)\n        if \'register\' not in auth.settings.actions_disabled:\n            response.write(\'\\n              <a class="dropdown-item" href="\', escape=False)\n            response.write(URL(\'default\',\'user/register\'))\n            response.write(\'">\', escape=False)\n            response.write(T(\'Sign up\'))\n            response.write(\'</a>\\n              \', escape=False)\n            pass\n        response.write(\'\\n              \', escape=False)\n        if \'retrieve_password\' not in auth.settings.actions_disabled:\n            response.write(\'\\n              <a class="dropdown-item" href="\', escape=False)\n            response.write(URL(\'default\',\'user/retrieve_password\'))\n            response.write(\'">\', escape=False)\n            response.write(T(\'Lost Password\'))\n            response.write(\'</a>\\n              \', escape=False)\n            pass\n        response.write(\'\\n              \', escape=False)\n        pass\n    response.write(\'\\n            </div>\\n          </li>\\n        </ul>\\n        \', escape=False)\n    pass\nresponse.write(\'\\n      </div>\\n    </nav>\\n\\n    <!-- Masthead ===================================== -->\\n    \', escape=False)\nresponse.write(\'\\n    \', escape=False)\nresponse.write(\'\\n    <!-- Main ========================================= -->\\n    <!-- Begin page content -->\\n    <div class="container-fluid main-container">\\n      \', escape=False)\nresponse.write(\'\\n\', escape=False)\na=1\nresponse.write(\'\\n\', escape=False)\nbonus=0\nresponse.write(\'\\n\', escape=False)\nmes="Janeiro"\nresponse.write(\'\\n\', escape=False)\nif primeira_data.month==2:\n    response.write(\'\\n\', escape=False)\n    mes="Fevereiro"\n    response.write(\'\\n\\n\', escape=False)\nelif primeira_data.month==3:\n    response.write(\'\\n\', escape=False)\n    mes="Mar\xc3\xa7o"\n    response.write(\'\\n\\n\', escape=False)\nelif primeira_data.month==4:\n    response.write(\'\\n\', escape=False)\n    mes="Abril"\n    response.write(\'\\n\\n\', escape=False)\nelif primeira_data.month==5:\n    response.write(\'\\n\', escape=False)\n    mes="Maio"\n    response.write(\'\\n\\n\', escape=False)\nelif primeira_data.month==6:\n    response.write(\'\\n\', escape=False)\n    mes="Junho"\n    response.write(\'\\n\\n\', escape=False)\nelif primeira_data.month==7:\n    response.write(\'\\n\', escape=False)\n    mes="Julho"\n    response.write(\'\\n\\n\', escape=False)\nelif primeira_data.month==8:\n    response.write(\'\\n\', escape=False)\n    mes="Agosto"\n    response.write(\'\\n\\n\', escape=False)\nelif primeira_data.month==9:\n    response.write(\'\\n\', escape=False)\n    mes="Setembro"\n    response.write(\'\\n\\n\', escape=False)\nelif primeira_data.month==10:\n    response.write(\'\\n\', escape=False)\n    mes="Outubro"\n    response.write(\'\\n\\n\', escape=False)\nelif primeira_data.month==11:\n    response.write(\'\\n\', escape=False)\n    mes="Novembro"\n    response.write(\'\\n\\n\', escape=False)\nelif primeira_data.month==12:\n    response.write(\'\\n\', escape=False)\n    mes="Dezembro"\n    response.write(\'\\n\', escape=False)\n    pass\nresponse.write(\'\\n\', escape=False)\nif primeira_data.month==1:\n    response.write(\'\\n    \', escape=False)\n    primeira_data=datetime.date(primeira_data.year-1, 12, 1)\n    response.write(\'\\n\', escape=False)\nelse:\n    response.write(\'\\n    \', escape=False)\n    primeira_data=datetime.date(primeira_data.year,  primeira_data.month-1, 1)\n    response.write(\'\\n\', escape=False)\n    pass\nresponse.write(\'\\n\\n\', escape=False)\ntotal=0\nresponse.write(\'\\n\', escape=False)\ntotalr=0\nresponse.write(\'\\n\', escape=False)\ntotalc=0\nresponse.write(\'\\n\', escape=False)\ntotalop=0\nresponse.write(\'\\n\\n\', escape=False)\ntotalsimulado=0\nresponse.write(\'\\n\', escape=False)\ntotalrsumulado=0\nresponse.write(\'\\n\', escape=False)\nlucrototal=0\nresponse.write(\'\\n<div class="py-5">\\n    <div class="container">\\n      \\n      <div class="row">\\n        <div class="col-md-12">\\n          <a class="btn btn-link" href="\', escape=False)\nresponse.write(URL(\'default\',\'index\'))\nresponse.write(\'" style="color:#3b5998">\\n                 <i class="fa fa-fw fa-1x py-1 fa-arrow-left"></i> Voltar\\n             </a>\\n        </div>\\n      </div>\\n      <div class="row">\\n        <div class="col-md-12">\\n          <center>\\n              <a class="btn btn-link" href="\', escape=False)\nresponse.write(URL(\'index\', args=[primeira_data.month,primeira_data.year]))\nresponse.write(\'" style="color:#3b5998">\\n                  <i class="fa fa-fw fa-1x py-1 fa-arrow-left"></i> M\\xc3\\xaas Anterior</a>\\n              Opera\\xc3\\xa7\\xc3\\xb5es do m\\xc3\\xaas de <b>\', escape=False)\nresponse.write(mes)\nresponse.write(\'</b>\\n              <a class="btn btn-link" href="\', escape=False)\nresponse.write(URL(\'index\',  args=[ultima_data.month,ultima_data.year]))\nresponse.write(\'" style="color:#3b5998">Pr\\xc3\\xb3ximo M\\xc3\\xaas\\n                  <i class="fa fa-fw fa-1x py-1 fa-arrow-right"></i> \\n              </a></center>\\n        </div>\\n      </div>\\n      <div class="row">\\n        <div class="col-md-12">\\n          <marquee>Servidor de desenvolvimento vencido, o sistema ser\\xc3\\xa1 desativado em \', escape=False)\nresponse.write(12-data_atual.day)\nresponse.write(\' dias, fa\\xc3\\xa7a o backup dos seus dados ou entre em contato com o desenvolvedor para autorizar integra\\xc3\\xa7\\xc3\\xa3o.</marquee>\\n        </div>\\n      </div>\\n      <div class="row">\\n        <div class="col-md-12">\\n          <div class="table-responsive">\\n            <table class="table table-striped table-borderless">\\n              <thead>\\n                <tr>\\n                  <th scope="col" class="text-center">#</th>\\n                  <th scope="col" class="text-center">#</th>\\n                  <th scope="col">Data</th>\\n                  <th scope="col" style="">Q.Par</th>\\n                  <th scope="col">Opera\\xc3\\xa7\\xc3\\xa3o</th>\\n                  <th scope="col" style="">Entregue</th>\\n                  <th scope="col" >Comiss\\xc3\\xa3o</th>\\n                  <th scope="col" >B\\xc3\\xb4nus</th>\\n                  <th scope="col" style="" contenteditable="true">Operadora</th>\\n                  <th scope="col" style="">Lucro</th>\\n                  <th scope="col" style="">Perc Lucro</th>\\n                  <th scope="col" style="" class="text-center">Cart\\xc3\\xa3o</th>\\n                  <th scope="col" style="" class="text-center">(Conferir)</th>\\n                </tr>\\n              </thead>\\n              <tbody>\\n                  \', escape=False)\nfor row in rows:\n    response.write(\'\\n                <tr>\\n                  \', escape=False)\n    if row.valor_operacao>0:\n        response.write(\'\\n                  <th>\', escape=False)\n        response.write(a)\n        response.write(\'</th>\', escape=False)\n        a+=1\n        response.write(\'\\n                    \', escape=False)\n        if row.confirmado:\n            response.write(\'\\n                    <th class="text-center">\\n                        <a class="btn btn-link" href="\', escape=False)\n            response.write(URL(\'confirmar_operacao\', args=row.id))\n            response.write(\'" >\\n                            <i class="fa fa-thumbs-up fa-fw fa-1x py-1" ></i></a></th>\\n                    \', escape=False)\n        else:\n            response.write(\'\\n                    <th class="text-center">\\n                        <a class="btn btn-link" href="\', escape=False)\n            response.write(URL(\'confirmar_operacao\', args=row.id))\n            response.write(\'" style="color:#ff6600">\\n                            <i class="fa fa-hand-o-right fa-fw fa-1x py-1" ></i></a></th>\\n                    \', escape=False)\n            pass\n        response.write(\'\\n                    \', escape=False)\n        if (row.operadora=="Visa (Max)")or(row.operadora=="MasterCard (Max)"):\n            response.write(\'\\n                    \', escape=False)\n            if row.quant_parcelas==1:\n                row.valor_cobrado_operadora=row.valor_operacao*0.0329\n                response.write(\'\\n                    \', escape=False)\n            elif row.quant_parcelas==2:\n                row.valor_cobrado_operadora=row.valor_operacao*0.0403\n                response.write(\'\\n                    \', escape=False)\n            elif row.quant_parcelas==3:\n                row.valor_cobrado_operadora=row.valor_operacao*0.0454\n                response.write(\'\\n                    \', escape=False)\n            elif row.quant_parcelas==4:\n                row.valor_cobrado_operadora=row.valor_operacao*0.0504\n                response.write(\'\\n                    \', escape=False)\n            elif row.quant_parcelas==5:\n                row.valor_cobrado_operadora=row.valor_operacao*0.0554\n                response.write(\'\\n                    \', escape=False)\n            elif row.quant_parcelas==6:\n                row.valor_cobrado_operadora=row.valor_operacao*0.0604\n                response.write(\'\\n                    \', escape=False)\n            elif row.quant_parcelas==7:\n                row.valor_cobrado_operadora=row.valor_operacao*0.0653\n                response.write(\'\\n                    \', escape=False)\n            elif row.quant_parcelas==8:\n                row.valor_cobrado_operadora=row.valor_operacao*0.0702\n                response.write(\'\\n                    \', escape=False)\n            elif row.quant_parcelas==9:\n                row.valor_cobrado_operadora=row.valor_operacao*0.0750\n                response.write(\'\\n                    \', escape=False)\n            elif row.quant_parcelas==10:\n                row.valor_cobrado_operadora=row.valor_operacao*0.0798\n                response.write(\'\\n                    \', escape=False)\n            elif row.quant_parcelas==11:\n                row.valor_cobrado_operadora=row.valor_operacao*0.0846\n                response.write(\'\\n                    \', escape=False)\n            elif row.quant_parcelas==12:\n                row.valor_cobrado_operadora=row.valor_operacao*0.0894\n                response.write(\'\\n                    \', escape=False)\n            elif row.quant_parcelas==18:\n                row.valor_cobrado_operadora=row.valor_operacao*0.1320\n                response.write(\'\\n\\n                    \', escape=False)\n                pass\n            response.write(\'\\n                    \', escape=False)\n            if (row.operadora=="Visa (Infinite)")or(row.operadora=="MasterCard (Infinite)"):\n                response.write(\'\\n                    \', escape=False)\n                if row.quant_parcelas==1:\n                    row.valor_cobrado_operadora=row.valor_operacao*0.0329\n                    response.write(\'\\n                    \', escape=False)\n                elif row.quant_parcelas==2:\n                    row.valor_cobrado_operadora=row.valor_operacao*0.0403\n                    response.write(\'\\n                    \', escape=False)\n                elif row.quant_parcelas==3:\n                    row.valor_cobrado_operadora=row.valor_operacao*0.0454\n                    response.write(\'\\n                    \', escape=False)\n                elif row.quant_parcelas==4:\n                    row.valor_cobrado_operadora=row.valor_operacao*0.0504\n                    response.write(\'\\n                    \', escape=False)\n                elif row.quant_parcelas==5:\n                    row.valor_cobrado_operadora=row.valor_operacao*0.0554\n                    response.write(\'\\n                    \', escape=False)\n                elif row.quant_parcelas==6:\n                    row.valor_cobrado_operadora=row.valor_operacao*0.0604\n                    response.write(\'\\n                    \', escape=False)\n                elif row.quant_parcelas==7:\n                    row.valor_cobrado_operadora=row.valor_operacao*0.0653\n                    response.write(\'\\n                    \', escape=False)\n                elif row.quant_parcelas==8:\n                    row.valor_cobrado_operadora=row.valor_operacao*0.0702\n                    response.write(\'\\n                    \', escape=False)\n                elif row.quant_parcelas==9:\n                    row.valor_cobrado_operadora=row.valor_operacao*0.0750\n                    response.write(\'\\n                    \', escape=False)\n                elif row.quant_parcelas==10:\n                    row.valor_cobrado_operadora=row.valor_operacao*0.0798\n                    response.write(\'\\n                    \', escape=False)\n                elif row.quant_parcelas==11:\n                    row.valor_cobrado_operadora=row.valor_operacao*0.0846\n                    response.write(\'\\n                    \', escape=False)\n                elif row.quant_parcelas==12:\n                    row.valor_cobrado_operadora=row.valor_operacao*0.0894\n                    response.write(\'\\n                    \', escape=False)\n                elif row.quant_parcelas==18:\n                    row.valor_cobrado_operadora=row.valor_operacao*0.1320\n                    response.write(\'\\n\\n                    \', escape=False)\n                    pass\n                response.write(\'\\n                    \', escape=False)\n            elif row.operadora=="American Express (Max)":\n                response.write(\'\\n                    \', escape=False)\n                if row.quant_parcelas==1:\n                    row.valor_cobrado_operadora=row.valor_operacao*0.0468\n                    response.write(\'\\n                    \', escape=False)\n                elif row.quant_parcelas==2:\n                    row.valor_cobrado_operadora=row.valor_operacao*0.0557\n                    response.write(\'\\n                    \', escape=False)\n                elif row.quant_parcelas==3:\n                    row.valor_cobrado_operadora=row.valor_operacao*0.0615\n                    response.write(\'\\n                    \', escape=False)\n                elif row.quant_parcelas==4:\n                    row.valor_cobrado_operadora=row.valor_operacao*0.0672\n                    response.write(\'\\n                    \', escape=False)\n                elif row.quant_parcelas==5:\n                    row.valor_cobrado_operadora=row.valor_operacao*0.0730\n                    response.write(\'\\n                    \', escape=False)\n                elif row.quant_parcelas==6:\n                    row.valor_cobrado_operadora=row.valor_operacao*0.0786\n                    response.write(\'\\n                    \', escape=False)\n                elif row.quant_parcelas==7:\n                    row.valor_cobrado_operadora=row.valor_operacao*0.0843\n                    response.write(\'\\n                    \', escape=False)\n                elif row.quant_parcelas==8:\n                    row.valor_cobrado_operadora=row.valor_operacao*0.0899\n                    response.write(\'\\n                    \', escape=False)\n                elif row.quant_parcelas==9:\n                    row.valor_cobrado_operadora=row.valor_operacao*0.0954\n                    response.write(\'\\n                    \', escape=False)\n                elif row.quant_parcelas==10:\n                    row.valor_cobrado_operadora=row.valor_operacao*0.1009\n                    response.write(\'\\n                    \', escape=False)\n                elif row.quant_parcelas==11:\n                    row.valor_cobrado_operadora=row.valor_operacao*0.1064\n                    response.write(\'\\n                    \', escape=False)\n                elif row.quant_parcelas==12:\n                    row.valor_cobrado_operadora=row.valor_operacao*0.1118\n                    response.write(\'\\n                    \', escape=False)\n                elif row.quant_parcelas==18:\n                    row.valor_cobrado_operadora=row.valor_operacao*0.1320\n                    response.write(\'\\n                    \', escape=False)\n                    pass\n                response.write(\'\\n                    \', escape=False)\n            elif row.operadora=="Hipercard (Max)":\n                response.write(\'\\n                    \', escape=False)\n                if row.quant_parcelas==1:\n                    row.valor_cobrado_operadora=row.valor_operacao*0.0343\n                    response.write(\'\\n                    \', escape=False)\n                elif row.quant_parcelas==2:\n                    row.valor_cobrado_operadora=row.valor_operacao*0.0475\n                    response.write(\'\\n                    \', escape=False)\n                elif row.quant_parcelas==3:\n                    row.valor_cobrado_operadora=row.valor_operacao*0.0526\n                    response.write(\'\\n                    \', escape=False)\n                elif row.quant_parcelas==4:\n                    row.valor_cobrado_operadora=row.valor_operacao*0.0577\n                    response.write(\'\\n                    \', escape=False)\n                elif row.quant_parcelas==5:\n                    row.valor_cobrado_operadora=row.valor_operacao*0.0627\n                    response.write(\'\\n                    \', escape=False)\n                elif row.quant_parcelas==6:\n                    row.valor_cobrado_operadora=row.valor_operacao*0.0677\n                    response.write(\'\\n                    \', escape=False)\n                elif row.quant_parcelas==7:\n                    row.valor_cobrado_operadora=row.valor_operacao*0.0757\n                    response.write(\'\\n                    \', escape=False)\n                elif row.quant_parcelas==8:\n                    row.valor_cobrado_operadora=row.valor_operacao*0.0806\n                    response.write(\'\\n                    \', escape=False)\n                elif row.quant_parcelas==9:\n                    row.valor_cobrado_operadora=row.valor_operacao*0.0855\n                    response.write(\'\\n                    \', escape=False)\n                elif row.quant_parcelas==10:\n                    row.valor_cobrado_operadora=row.valor_operacao*0.0904\n                    response.write(\'\\n                    \', escape=False)\n                elif row.quant_parcelas==11:\n                    row.valor_cobrado_operadora=row.valor_operacao*0.0952\n                    response.write(\'\\n                    \', escape=False)\n                elif row.quant_parcelas==12:\n                    row.valor_cobrado_operadora=row.valor_operacao*0.0990\n                    response.write(\'\\n                    \', escape=False)\n                elif row.quant_parcelas==18:\n                    row.valor_cobrado_operadora=row.valor_operacao*0.1320\n                    response.write(\'\\n                    \', escape=False)\n                    pass\n                response.write(\'\\n                    \', escape=False)\n            elif row.operadora=="Elo (Max)":\n                response.write(\'\\n                    \', escape=False)\n                if row.quant_parcelas==1:\n                    row.valor_cobrado_operadora=row.valor_operacao*0.0438\n                    response.write(\'\\n                    \', escape=False)\n                elif row.quant_parcelas==2:\n                    row.valor_cobrado_operadora=row.valor_operacao*0.0547\n                    response.write(\'\\n                    \', escape=False)\n                elif row.quant_parcelas==3:\n                    row.valor_cobrado_operadora=row.valor_operacao*0.0595\n                    response.write(\'\\n                    \', escape=False)\n                elif row.quant_parcelas==4:\n                    row.valor_cobrado_operadora=row.valor_operacao*0.0644\n                    response.write(\'\\n                    \', escape=False)\n                elif row.quant_parcelas==5:\n                    row.valor_cobrado_operadora=row.valor_operacao*0.0692\n                    response.write(\'\\n                    \', escape=False)\n                elif row.quant_parcelas==6:\n                    row.valor_cobrado_operadora=row.valor_operacao*0.0739\n                    response.write(\'\\n                    \', escape=False)\n                elif row.quant_parcelas==7:\n                    row.valor_cobrado_operadora=row.valor_operacao*0.0818\n                    response.write(\'\\n                    \', escape=False)\n                elif row.quant_parcelas==8:\n                    row.valor_cobrado_operadora=row.valor_operacao*0.0865\n                    response.write(\'\\n                    \', escape=False)\n                elif row.quant_parcelas==9:\n                    row.valor_cobrado_operadora=row.valor_operacao*0.0912\n                    response.write(\'\\n                    \', escape=False)\n                elif row.quant_parcelas==10:\n                    row.valor_cobrado_operadora=row.valor_operacao*0.0958\n                    response.write(\'\\n                    \', escape=False)\n                elif row.quant_parcelas==11:\n                    row.valor_cobrado_operadora=row.valor_operacao*0.1004\n                    response.write(\'\\n                    \', escape=False)\n                elif row.quant_parcelas==12:\n                    row.valor_cobrado_operadora=row.valor_operacao*0.1040\n                    response.write(\'\\n                    \', escape=False)\n                elif row.quant_parcelas==18:\n                    row.valor_cobrado_operadora=row.valor_operacao*0.1320\n                    response.write(\'\\n                    \', escape=False)\n                    pass\n                response.write(\'\\n                    \', escape=False)\n            elif row.operadora=="Maq Stone":\n                response.write(\'\\n                    \', escape=False)\n                if row.quant_parcelas==1:\n                    row.valor_cobrado_operadora=row.valor_operacao*1.0000\n                    response.write(\'\\n                    \', escape=False)\n                elif row.quant_parcelas==2:\n                    row.valor_cobrado_operadora=row.valor_operacao*01.0000\n                    response.write(\'\\n                    \', escape=False)\n                elif row.quant_parcelas==3:\n                    row.valor_cobrado_operadora=row.valor_operacao*01.0000\n                    response.write(\'\\n                    \', escape=False)\n                elif row.quant_parcelas==4:\n                    row.valor_cobrado_operadora=row.valor_operacao*01.0000\n                    response.write(\'\\n                    \', escape=False)\n                elif row.quant_parcelas==5:\n                    row.valor_cobrado_operadora=row.valor_operacao*01.0000\n                    response.write(\'\\n                    \', escape=False)\n                elif row.quant_parcelas==6:\n                    row.valor_cobrado_operadora=row.valor_operacao*01.0000\n                    response.write(\'\\n                    \', escape=False)\n                elif row.quant_parcelas==7:\n                    row.valor_cobrado_operadora=row.valor_operacao*01.0000\n                    response.write(\'\\n                    \', escape=False)\n                elif row.quant_parcelas==8:\n                    row.valor_cobrado_operadora=row.valor_operacao*01.0000\n                    response.write(\'\\n                    \', escape=False)\n                elif row.quant_parcelas==9:\n                    row.valor_cobrado_operadora=row.valor_operacao*01.0000\n                    response.write(\'\\n                    \', escape=False)\n                elif row.quant_parcelas==10:\n                    row.valor_cobrado_operadora=row.valor_operacao*01.0000\n                    response.write(\'\\n                    \', escape=False)\n                elif row.quant_parcelas==11:\n                    row.valor_cobrado_operadora=row.valor_operacao*01.0000\n                    response.write(\'\\n                    \', escape=False)\n                elif row.quant_parcelas==12:\n                    row.valor_cobrado_operadora=row.valor_operacao*0.1348\n                    response.write(\'\\n                    \', escape=False)\n                elif row.quant_parcelas==18:\n                    row.valor_cobrado_operadora=row.valor_operacao*0.1320\n                    response.write(\'                    \\n                    \', escape=False)\n                    pass\n                response.write(\'\\n                    \', escape=False)\n                pass\n            response.write(\'\\n                    \', escape=False)\n            total+=row.valor_operacao\n            response.write(\'\\n                    \', escape=False)\n            totalr+=row.valor_repassado\n            response.write(\'\\n                    \', escape=False)\n            totalc+=row.valor_comissao\n            response.write(\'\\n                  <th scope="row">\', escape=False)\n            response.write(("{}/{}/{}".format(row.data_operacao.day,row.data_operacao.month,row.data_operacao.year)))\n            response.write(\'</th>\\n                  <td>\', escape=False)\n            response.write(row.quant_parcelas)\n            response.write(\'</td>\\n                  <td>R$ \', escape=False)\n            response.write("{:,}".format(round(row.valor_operacao,2)).replace(",","."))\n            response.write(\'0</td>\\n                  <td>R$ \', escape=False)\n            response.write("{:,}".format(round(row.valor_repassado,1)).replace(",","."))\n            response.write(\'0</td>\\n                    \', escape=False)\n            margemop=0\n            response.write(\'\\n                    \', escape=False)\n            if row.valor_operacao>0 and row.valor_repassado>0:\n                response.write(\'\\n                    \', escape=False)\n                margemop=(((row.valor_operacao/row.valor_repassado)-1)*100)\n                response.write(\'\\n                    \', escape=False)\n                pass\n            response.write(\'\\n\\n                  <td>R$ \', escape=False)\n            response.write("{:,}".format(round(row.valor_comissao,1)).replace(",","."))\n            response.write(\'0</td>\\n                    <td>R$ \', escape=False)\n            response.write("{:,}".format(round(row.bonus,1)).replace(",","."))\n            response.write(\'0</td>\\n                    \', escape=False)\n            bonus+=row.bonus\n            response.write(\'\\n\', escape=False)\n            totalop+=row.valor_cobrado_operadora\n            response.write(\'\\n                    <td>R$ \', escape=False)\n            response.write("{:,}".format(round(row.valor_cobrado_operadora,2)).replace(",","."))\n            response.write(\'</td>\\n                     \', escape=False)\n            lucro=row.valor_operacao-row.valor_repassado-row.valor_cobrado_operadora-row.valor_comissao\n            response.write(\'\\n                    \', escape=False)\n            lucrototal+=lucro\n            response.write(\'\\n                    <td>R$ \', escape=False)\n            response.write("{:,}".format(round(lucro,2)).replace(",","."))\n            response.write(\'</td>\\n                    \', escape=False)\n            if lucro>0:\n                response.write(\'\\n                    <td style="color:#0000ff">\', escape=False)\n                response.write("{:,}".format(round(lucro/row.valor_operacao*100,2)).replace(",","."))\n                response.write(\'%</td>\\n                    \', escape=False)\n            else:\n                response.write(\'\\n                  <td style="color:#ff0000">\', escape=False)\n                response.write("{:,}".format(round(0,2)).replace(",","."))\n                response.write(\'%</td>\\n                    \', escape=False)\n                pass\n            response.write(\'\\n                    <td><a class="btn btn-link" href="\', escape=False)\n            response.write(URL(\'visualizar_operacao\', args=row.id))\n            response.write(\'" style="color:#cc5200">\\n                        \', escape=False)\n            response.write(row.operadora)\n            response.write(\'\\n                        </a></td>\\n                    \', escape=False)\n            if lucro>0:\n                response.write(\'\\n                  <td>\', escape=False)\n                response.write("{:,}".format(round(row.valor_cobrado_operadora/row.valor_operacao*100,2)).replace(",","."))\n                response.write(\'%</td>\\n                     \', escape=False)\n            else:\n                response.write(\'\\n                  <td style="color:#ff0000">\', escape=False)\n                response.write("{:,}".format(round(0,2)).replace(",","."))\n                response.write(\'%</td>\\n                    \', escape=False)\n                pass\n            response.write(\'\\n                \\n                  \', escape=False)\n            if not row.valor_operacao>0:\n                response.write(\'\\n                  \\n                  \', escape=False)\n                pass\n            response.write(\'\\n                    </tr>\\n                  \', escape=False)\n            pass\n        response.write(\'\\n\\n                  \', escape=False)\n        pass\n    response.write(\'\\n              </tbody>\\n            </table>\\n          </div>\\n        </div>\\n      </div>\\n    </div>\\n  </div>\\n\', escape=False)\n    if total>0:\n        response.write(\'\\n<div class="py-5 text-center">\\n    <div class="container">\\n      <div class="row">\\n        <div class="col-md-10 text-center mx-auto">\\n          <h2 class="mb-0">Resumo do M\\xc3\\xaas</h2>\\n          <div class="row justify-content-center">\\n            <div class="col-lg-4 col-md-4 p-4"> <i class="d-block fa fa-stop-circle mb-2 text-muted fa-2x"></i>\\n              <h4> <b>Opera\\xc3\\xa7\\xc3\\xa3o Real</b></h4>\\n              <p class="mb-0">\\n                  <br>Valor Financiado - <b>R$ \', escape=False)\n        response.write("{:,}".format(round(total,2)).replace(",","."))\n        response.write(\'0</b>\\n                 <br>Valor Emprestado - <b>R$ \', escape=False)\n        response.write("{:,}".format(round(totalr,1)).replace(",","."))\n        response.write(\'0</b>\\n                  <br>Valor Operadora - <b>R$ \', escape=False)\n        response.write("{:,}".format(round(totalop,2)).replace(",","."))\n        response.write(\'</b>\\n                  <br>Valor Comiss\\xc3\\xa3o - <b>R$ \', escape=False)\n        response.write("{:,}".format(round(totalc,2)).replace(",","."))\n        response.write(\'0</b>\\n                  <br>Valor B\\xc3\\xb4nus - <b>R$ \', escape=False)\n        response.write("{:,}".format(round(bonus,2)).replace(",","."))\n        response.write(\'0</b>\\n                </p>\\n            </div>\\n            <div class="col-lg-4 col-md-4 p-4"> <i class="d-block fa fa-circle-o mb-2 text-muted fa-2x"></i>\\n              <h4> <b>Lucratividade</b></h4>\\n                  <br>Lucro Total - <b>R$ \', escape=False)\n        response.write("{:,}".format(round(lucrototal,2)).replace(",","."))\n        response.write(\'</b>\\n              \', escape=False)\n        a-=1\n        response.write(\'\\n                  <br>Quant Opera\\xc3\\xa7\\xc3\\xb5es - <b>\', escape=False)\n        response.write(a)\n        response.write(\'</b>\\n              \', escape=False)\n        if (total>0)and(a>0):\n            response.write(\'\\n                  <br>Ticket M\\xc3\\xa9d (Opera\\xc3\\xa7\\xc3\\xa3o) - <b>R$ \', escape=False)\n            response.write("{:,}".format(round(total/a,2)).replace(",","."))\n            response.write(\'</b>\\n              \', escape=False)\n            pass\n        response.write(\'\\n              \\n              \', escape=False)\n        if (lucrototal>0)and(a>0):\n            response.write(\'\\n                  <br>Ticket  M\\xc3\\xa9d (Lucro) - <b>R$ \', escape=False)\n            response.write("{:,}".format(round(lucrototal/a,2)).replace(",","."))\n            response.write(\'</b>\\n              \', escape=False)\n            pass\n        response.write(\'\\n            </div>\\n          </div>\\n        </div>\\n      </div>\\n    </div>\\n  <div class="row">\\n        <div class="col-md-12">\\n          <center>\\n              <a class="btn btn-link" href="\', escape=False)\n        response.write(URL(\'index\', args=[primeira_data.month,primeira_data.year]))\n        response.write(\'" style="color:#3b5998">\\n                  <i class="fa fa-fw fa-1x py-1 fa-arrow-left"></i> M\\xc3\\xaas Anterior</a>\\n              Opera\\xc3\\xa7\\xc3\\xb5es do m\\xc3\\xaas de <b>\', escape=False)\n        response.write(mes)\n        response.write(\'</b>\\n              <a class="btn btn-link" href="\', escape=False)\n        response.write(URL(\'index\',  args=[ultima_data.month,ultima_data.year]))\n        response.write(\'" style="color:#3b5998">Pr\\xc3\\xb3ximo M\\xc3\\xaas\\n                  <i class="fa fa-fw fa-1x py-1 fa-arrow-right"></i> \\n              </a></center>\\n        </div>\\n      </div>\\n  </div>\\n\\n\', escape=False)\n    else:\n        response.write(\'\\n\\n<div class="py-5 text-center">\\n    <div class="container">\\n      <div class="row">\\n        <center>\\n<h1>\\n  Sem Opera\\xc3\\xa7\\xc3\\xb5es nesse m\\xc3\\xaas\\n</h1>\\n          </center>\\n      </div></div></div>\\n\', escape=False)\n        pass\n    response.write(\'\\n\', escape=False)\n    response.write(\'\\n      \', escape=False)\n    response.write(response.toolbar() if response.show_toolbar else \'\')\n    response.write(\'\\n    </div>\\n\\n    \', escape=False)\n    response.write(\' <!-- this is default footer -->\\n    <footer class="footer container-fluid">\\n      <div class="row">\\n        <div class="col-md-12">\\n          <div class="copyright pull-left">\', escape=False)\n    response.write(T(\'Copyright\'))\n    response.write(\' &#169; \', escape=False)\n    response.write(request.now.year)\n    response.write(\'</div>\\n          <div id="poweredBy" class="pull-right">\\n            <p>(88) 98154-7978 | (88) 98124-5778</p>\\n          </div>\\n        </div>\\n      </div>\\n    </footer>\\n    \', escape=False)\n    response.write(\'\\n    <!-- The javascript =============================== -->\\n    <script src="\', escape=False)\n    response.write(URL(\'static\',\'js/bootstrap.bundle.min.js\'))\n    response.write(\'"></script>\\n    <script src="\', escape=False)\n    response.write(URL(\'static\',\'js/web2py-bootstrap4.js\'))\n    response.write(\'"></script>\\n    \', escape=False)\n    response.write(\'\\n    \', escape=False)\n    if response.google_analytics_id:\n        response.write(\'\\n    <!-- Analytics ==================================== -->\\n    <script src="\', escape=False)\n        response.write(URL(\'static\',\'js/analytics.min.js\'))\n        response.write(\'"></script>\\n    <script type="text/javascript">\\n      analytics.initialize({\\n      \\\'Google Analytics\\\':{trackingId:\\\'\', escape=False)\n        response.write(response.google_analytics_id)\n        response.write("\'}\\n      });\\n    </script>\\n    ", escape=False)\n        pass\n    response.write(\'\\n  </body>\\n</html>\\n\', escape=False)'
p7
sS'snapshot'
p8
(dp9
sS'traceback'
p10
S'None\n'
p11
s.