(dp1
S'output'
p2
S"<type 'exceptions.RuntimeError'> File /home/rogoberto/web2py/applications/prodigy/databases/c8b669d15150d7109e5f7ab36744a5b7_operacao.table appears corrupted"
p3
sS'layer'
p4
S'/home/rogoberto/web2py/applications/prodigy/models/db.py'
p5
sS'code'
p6
S'<code object <module> at 0x7fb14dc26e30, file "/home/rogoberto/web2py/applications/prodigy/models/db.py", line 7>'
p7
sS'snapshot'
p8
(dp9
S'exception'
p10
(dp11
S'__getslice__'
p12
S"<method-wrapper '__getslice__' of exceptions.RuntimeError object>"
p13
sS'__str__'
p14
S"<method-wrapper '__str__' of exceptions.RuntimeError object>"
p15
sS'__reduce__'
p16
S'<built-in method __reduce__ of exceptions.RuntimeError object>'
p17
sS'__dict__'
p18
S'{}'
p19
sS'message'
p20
S"'File /home/rogoberto/web2py/applications/prodigy...9e5f7ab36744a5b7_operacao.table appears corrupted'"
p21
sS'__sizeof__'
p22
S'<built-in method __sizeof__ of exceptions.RuntimeError object>'
p23
sS'__init__'
p24
S"<method-wrapper '__init__' of exceptions.RuntimeError object>"
p25
sS'__setattr__'
p26
S"<method-wrapper '__setattr__' of exceptions.RuntimeError object>"
p27
sS'__reduce_ex__'
p28
S'<built-in method __reduce_ex__ of exceptions.RuntimeError object>'
p29
sS'__new__'
p30
S'<built-in method __new__ of type object>'
p31
sS'__format__'
p32
S'<built-in method __format__ of exceptions.RuntimeError object>'
p33
sS'__class__'
p34
S"<type 'exceptions.RuntimeError'>"
p35
sS'__doc__'
p36
S"'Unspecified run-time error.'"
p37
sS'__getitem__'
p38
S"<method-wrapper '__getitem__' of exceptions.RuntimeError object>"
p39
sS'__setstate__'
p40
S'<built-in method __setstate__ of exceptions.RuntimeError object>'
p41
sS'__getattribute__'
p42
S"<method-wrapper '__getattribute__' of exceptions.RuntimeError object>"
p43
sS'args'
p44
S"('File /home/rogoberto/web2py/applications/prodigy...9e5f7ab36744a5b7_operacao.table appears corrupted',)"
p45
sS'__subclasshook__'
p46
S'<built-in method __subclasshook__ of type object>'
p47
sS'__unicode__'
p48
S'<built-in method __unicode__ of exceptions.RuntimeError object>'
p49
sS'__delattr__'
p50
S"<method-wrapper '__delattr__' of exceptions.RuntimeError object>"
p51
sS'__repr__'
p52
S"<method-wrapper '__repr__' of exceptions.RuntimeError object>"
p53
sS'__hash__'
p54
S"<method-wrapper '__hash__' of exceptions.RuntimeError object>"
p55
ssS'evalue'
p56
S'File /home/rogoberto/web2py/applications/prodigy/databases/c8b669d15150d7109e5f7ab36744a5b7_operacao.table appears corrupted'
p57
sS'request'
p58
cgluon.html
XML_unpickle
p59
(S's\xd6X\x00\x00<div><table><tr><td style="font-weight:bold;vertical-align:top;">ajax</td><td style="vertical-align:top;">:</td><td><div>False</div></td></tr><tr><td style="font-weight:bold;vertical-align:top;">application</td><td style="vertical-align:top;">:</td><td><div>prodigy</div></td></tr><tr><td style="font-weight:bold;vertical-align:top;">args</td><td style="vertical-align:top;">:</td><td><div><table></table></div></td></tr><tr><td style="font-weight:bold;vertical-align:top;">cid</td><td style="vertical-align:top;">:</td><td><div>None</div></td></tr><tr><td style="font-weight:bold;vertical-align:top;">client</td><td style="vertical-align:top;">:</td><td><div>177.37.225.149</div></td></tr><tr><td style="font-weight:bold;vertical-align:top;">controller</td><td style="vertical-align:top;">:</td><td><div>default</div></td></tr><tr><td style="font-weight:bold;vertical-align:top;">cookies</td><td style="vertical-align:top;">:</td><td><div><table><tr><td style="font-weight:bold;vertical-align:top;">session_id_admin</td><td style="vertical-align:top;">:</td><td><div>177.37.225.149-8dd6b52d-22c6-4fb6-a831-f0a6beaa75fd<table><tr><td style="font-weight:bold;vertical-align:top;">comment</td><td style="vertical-align:top;">:</td><td><div></div></td></tr><tr><td style="font-weight:bold;vertical-align:top;">domain</td><td style="vertical-align:top;">:</td><td><div></div></td></tr><tr><td style="font-weight:bold;vertical-align:top;">expires</td><td style="vertical-align:top;">:</td><td><div></div></td></tr><tr><td style="font-weight:bold;vertical-align:top;">httponly</td><td style="vertical-align:top;">:</td><td><div></div></td></tr><tr><td style="font-weight:bold;vertical-align:top;">max-age</td><td style="vertical-align:top;">:</td><td><div></div></td></tr><tr><td style="font-weight:bold;vertical-align:top;">path</td><td style="vertical-align:top;">:</td><td><div></div></td></tr><tr><td style="font-weight:bold;vertical-align:top;">secure</td><td style="vertical-align:top;">:</td><td><div></div></td></tr><tr><td style="font-weight:bold;vertical-align:top;">version</td><td style="vertical-align:top;">:</td><td><div></div></td></tr></table></div></td></tr><tr><td style="font-weight:bold;vertical-align:top;">session_id_aluminum</td><td style="vertical-align:top;">:</td><td><div>177.37.225.149-a692390d-8263-4f77-be22-e1a301d63704<table><tr><td style="font-weight:bold;vertical-align:top;">comment</td><td style="vertical-align:top;">:</td><td><div></div></td></tr><tr><td style="font-weight:bold;vertical-align:top;">domain</td><td style="vertical-align:top;">:</td><td><div></div></td></tr><tr><td style="font-weight:bold;vertical-align:top;">expires</td><td style="vertical-align:top;">:</td><td><div></div></td></tr><tr><td style="font-weight:bold;vertical-align:top;">httponly</td><td style="vertical-align:top;">:</td><td><div></div></td></tr><tr><td style="font-weight:bold;vertical-align:top;">max-age</td><td style="vertical-align:top;">:</td><td><div></div></td></tr><tr><td style="font-weight:bold;vertical-align:top;">path</td><td style="vertical-align:top;">:</td><td><div></div></td></tr><tr><td style="font-weight:bold;vertical-align:top;">secure</td><td style="vertical-align:top;">:</td><td><div></div></td></tr><tr><td style="font-weight:bold;vertical-align:top;">version</td><td style="vertical-align:top;">:</td><td><div></div></td></tr></table></div></td></tr></table></div></td></tr><tr><td style="font-weight:bold;vertical-align:top;">env</td><td style="vertical-align:top;">:</td><td><div><table><tr><td style="font-weight:bold;vertical-align:top;">CONTENT_LENGTH</td><td style="vertical-align:top;">:</td><td><div></div></td></tr><tr><td style="font-weight:bold;vertical-align:top;">CONTENT_TYPE</td><td style="vertical-align:top;">:</td><td><div></div></td></tr><tr><td style="font-weight:bold;vertical-align:top;">DOCUMENT_ROOT</td><td style="vertical-align:top;">:</td><td><div>/usr/local/openresty/nginx/html</div></td></tr><tr><td style="font-weight:bold;vertical-align:top;">HTTPS</td><td style="vertical-align:top;">:</td><td><div>on</div></td></tr><tr><td style="font-weight:bold;vertical-align:top;">HTTP_ACCEPT</td><td style="vertical-align:top;">:</td><td><div>text/html,application/xhtml+xml,application/xml;q=0.9,image/avif,image/webp,image/apng,*/*;q=0.8,application/signed-exchange;v=b3;q=0.9</div></td></tr><tr><td style="font-weight:bold;vertical-align:top;">HTTP_ACCEPT_ENCODING</td><td style="vertical-align:top;">:</td><td><div>gzip, deflate, br</div></td></tr><tr><td style="font-weight:bold;vertical-align:top;">HTTP_ACCEPT_LANGUAGE</td><td style="vertical-align:top;">:</td><td><div>pt-BR,pt;q=0.9,en-US;q=0.8,en;q=0.7</div></td></tr><tr><td style="font-weight:bold;vertical-align:top;">HTTP_CACHE_CONTROL</td><td style="vertical-align:top;">:</td><td><div>max-age=0</div></td></tr><tr><td style="font-weight:bold;vertical-align:top;">HTTP_CONNECTION</td><td style="vertical-align:top;">:</td><td><div>close</div></td></tr><tr><td style="font-weight:bold;vertical-align:top;">HTTP_COOKIE</td><td style="vertical-align:top;">:</td><td><div>_ga=GA1.2.786035724.1591068301; _fbp=fb.1.1601074374993.1568363258; session_id_admin=177.37.225.149-8dd6b52d-22c6-4fb6-a831-f0a6beaa75fd; _gid=GA1.2.415827284.1601452291; session_id_aluminum=177.37.225.149-a692390d-8263-4f77-be22-e1a301d63704</div></td></tr><tr><td style="font-weight:bold;vertical-align:top;">HTTP_HOST</td><td style="vertical-align:top;">:</td><td><div>rogoberto.pythonanywhere.com</div></td></tr><tr><td style="font-weight:bold;vertical-align:top;">HTTP_SEC_FETCH_DEST</td><td style="vertical-align:top;">:</td><td><div>document</div></td></tr><tr><td style="font-weight:bold;vertical-align:top;">HTTP_SEC_FETCH_MODE</td><td style="vertical-align:top;">:</td><td><div>navigate</div></td></tr><tr><td style="font-weight:bold;vertical-align:top;">HTTP_SEC_FETCH_SITE</td><td style="vertical-align:top;">:</td><td><div>none</div></td></tr><tr><td style="font-weight:bold;vertical-align:top;">HTTP_SEC_FETCH_USER</td><td style="vertical-align:top;">:</td><td><div>?1</div></td></tr><tr><td style="font-weight:bold;vertical-align:top;">HTTP_UPGRADE_INSECURE_REQUESTS</td><td style="vertical-align:top;">:</td><td><div>1</div></td></tr><tr><td style="font-weight:bold;vertical-align:top;">HTTP_USER_AGENT</td><td style="vertical-align:top;">:</td><td><div>Mozilla/5.0 (Windows NT 6.1; Win64; x64) AppleWebKit/537.36 (KHTML, like Gecko) Chrome/85.0.4183.121 Safari/537.36</div></td></tr><tr><td style="font-weight:bold;vertical-align:top;">HTTP_X_FORWARDED_FOR</td><td style="vertical-align:top;">:</td><td><div>177.37.225.149</div></td></tr><tr><td style="font-weight:bold;vertical-align:top;">HTTP_X_REAL_IP</td><td style="vertical-align:top;">:</td><td><div>177.37.225.149</div></td></tr><tr><td style="font-weight:bold;vertical-align:top;">PATH_INFO</td><td style="vertical-align:top;">:</td><td><div>/prodigy/</div></td></tr><tr><td style="font-weight:bold;vertical-align:top;">QUERY_STRING</td><td style="vertical-align:top;">:</td><td><div></div></td></tr><tr><td style="font-weight:bold;vertical-align:top;">REMOTE_ADDR</td><td style="vertical-align:top;">:</td><td><div>10.0.0.124</div></td></tr><tr><td style="font-weight:bold;vertical-align:top;">REMOTE_PORT</td><td style="vertical-align:top;">:</td><td><div>46422</div></td></tr><tr><td style="font-weight:bold;vertical-align:top;">REQUEST_METHOD</td><td style="vertical-align:top;">:</td><td><div>GET</div></td></tr><tr><td style="font-weight:bold;vertical-align:top;">REQUEST_URI</td><td style="vertical-align:top;">:</td><td><div>/prodigy/</div></td></tr><tr><td style="font-weight:bold;vertical-align:top;">SCRIPT_NAME</td><td style="vertical-align:top;">:</td><td><div></div></td></tr><tr><td style="font-weight:bold;vertical-align:top;">SERVER_NAME</td><td style="vertical-align:top;">:</td><td><div>rogoberto.pythonanywhere.com</div></td></tr><tr><td style="font-weight:bold;vertical-align:top;">SERVER_PORT</td><td style="vertical-align:top;">:</td><td><div>443</div></td></tr><tr><td style="font-weight:bold;vertical-align:top;">SERVER_PROTOCOL</td><td style="vertical-align:top;">:</td><td><div>HTTP/1.1</div></td></tr><tr><td style="font-weight:bold;vertical-align:top;">app_folders</td><td style="vertical-align:top;">:</td><td><div>set([&#x27;/home/rogoberto/web2py/applications/prodigy/&#x27;, &#x27;/home/rogoberto/web2py/applications/aluminum/&#x27;, &#x27;/home/rogoberto/web2py/applications/admin/&#x27;])</div></td></tr><tr><td style="font-weight:bold;vertical-align:top;">applications_parent</td><td style="vertical-align:top;">:</td><td><div>/home/rogoberto/web2py</div></td></tr><tr><td style="font-weight:bold;vertical-align:top;">content_length</td><td style="vertical-align:top;">:</td><td><div></div></td></tr><tr><td style="font-weight:bold;vertical-align:top;">content_type</td><td style="vertical-align:top;">:</td><td><div></div></td></tr><tr><td style="font-weight:bold;vertical-align:top;">db_sessions</td><td style="vertical-align:top;">:</td><td><div>set([])</div></td></tr><tr><td style="font-weight:bold;vertical-align:top;">debugging</td><td style="vertical-align:top;">:</td><td><div>True</div></td></tr><tr><td style="font-weight:bold;vertical-align:top;">document_root</td><td style="vertical-align:top;">:</td><td><div>/usr/local/openresty/nginx/html</div></td></tr><tr><td style="font-weight:bold;vertical-align:top;">gluon_parent</td><td style="vertical-align:top;">:</td><td><div>/home/rogoberto/web2py</div></td></tr><tr><td style="font-weight:bold;vertical-align:top;">http_accept</td><td style="vertical-align:top;">:</td><td><div>text/html,application/xhtml+xml,application/xml;q=0.9,image/avif,image/webp,image/apng,*/*;q=0.8,application/signed-exchange;v=b3;q=0.9</div></td></tr><tr><td style="font-weight:bold;vertical-align:top;">http_accept_encoding</td><td style="vertical-align:top;">:</td><td><div>gzip, deflate, br</div></td></tr><tr><td style="font-weight:bold;vertical-align:top;">http_accept_language</td><td style="vertical-align:top;">:</td><td><div>pt-BR,pt;q=0.9,en-US;q=0.8,en;q=0.7</div></td></tr><tr><td style="font-weight:bold;vertical-align:top;">http_cache_control</td><td style="vertical-align:top;">:</td><td><div>max-age=0</div></td></tr><tr><td style="font-weight:bold;vertical-align:top;">http_connection</td><td style="vertical-align:top;">:</td><td><div>close</div></td></tr><tr><td style="font-weight:bold;vertical-align:top;">http_cookie</td><td style="vertical-align:top;">:</td><td><div>_ga=GA1.2.786035724.1591068301; _fbp=fb.1.1601074374993.1568363258; session_id_admin=177.37.225.149-8dd6b52d-22c6-4fb6-a831-f0a6beaa75fd; _gid=GA1.2.415827284.1601452291; session_id_aluminum=177.37.225.149-a692390d-8263-4f77-be22-e1a301d63704</div></td></tr><tr><td style="font-weight:bold;vertical-align:top;">http_host</td><td style="vertical-align:top;">:</td><td><div>rogoberto.pythonanywhere.com</div></td></tr><tr><td style="font-weight:bold;vertical-align:top;">http_sec_fetch_dest</td><td style="vertical-align:top;">:</td><td><div>document</div></td></tr><tr><td style="font-weight:bold;vertical-align:top;">http_sec_fetch_mode</td><td style="vertical-align:top;">:</td><td><div>navigate</div></td></tr><tr><td style="font-weight:bold;vertical-align:top;">http_sec_fetch_site</td><td style="vertical-align:top;">:</td><td><div>none</div></td></tr><tr><td style="font-weight:bold;vertical-align:top;">http_sec_fetch_user</td><td style="vertical-align:top;">:</td><td><div>?1</div></td></tr><tr><td style="font-weight:bold;vertical-align:top;">http_upgrade_insecure_requests</td><td style="vertical-align:top;">:</td><td><div>1</div></td></tr><tr><td style="font-weight:bold;vertical-align:top;">http_user_agent</td><td style="vertical-align:top;">:</td><td><div>Mozilla/5.0 (Windows NT 6.1; Win64; x64) AppleWebKit/537.36 (KHTML, like Gecko) Chrome/85.0.4183.121 Safari/537.36</div></td></tr><tr><td style="font-weight:bold;vertical-align:top;">http_x_forwarded_for</td><td style="vertical-align:top;">:</td><td><div>177.37.225.149</div></td></tr><tr><td style="font-weight:bold;vertical-align:top;">http_x_real_ip</td><td style="vertical-align:top;">:</td><td><div>177.37.225.149</div></td></tr><tr><td style="font-weight:bold;vertical-align:top;">https</td><td style="vertical-align:top;">:</td><td><div>on</div></td></tr><tr><td style="font-weight:bold;vertical-align:top;">is_jython</td><td style="vertical-align:top;">:</td><td><div>False</div></td></tr><tr><td style="font-weight:bold;vertical-align:top;">is_py2</td><td style="vertical-align:top;">:</td><td><div>True</div></td></tr><tr><td style="font-weight:bold;vertical-align:top;">is_pypy</td><td style="vertical-align:top;">:</td><td><div>False</div></td></tr><tr><td style="font-weight:bold;vertical-align:top;">is_source</td><td style="vertical-align:top;">:</td><td><div>True</div></td></tr><tr><td style="font-weight:bold;vertical-align:top;">local_hosts</td><td style="vertical-align:top;">:</td><td><div><table><tr><td><div>35.173.69.207</div></td></tr><tr><td><div>::ffff:127.0.0.1</div></td></tr><tr><td><div>::1</div></td></tr><tr><td><div>rogoberto.pythonanywhere.com</div></td></tr><tr><td><div>blue-liveweb2</div></td></tr><tr><td><div>127.0.0.1</div></td></tr><tr><td><div>localhost</div></td></tr></table></div></td></tr><tr><td style="font-weight:bold;vertical-align:top;">path_info</td><td style="vertical-align:top;">:</td><td><div>/prodigy/</div></td></tr><tr><td style="font-weight:bold;vertical-align:top;">query_string</td><td style="vertical-align:top;">:</td><td><div></div></td></tr><tr><td style="font-weight:bold;vertical-align:top;">remote_addr</td><td style="vertical-align:top;">:</td><td><div>10.0.0.124</div></td></tr><tr><td style="font-weight:bold;vertical-align:top;">remote_port</td><td style="vertical-align:top;">:</td><td><div>46422</div></td></tr><tr><td style="font-weight:bold;vertical-align:top;">request_method</td><td style="vertical-align:top;">:</td><td><div>GET</div></td></tr><tr><td style="font-weight:bold;vertical-align:top;">request_uri</td><td style="vertical-align:top;">:</td><td><div>/prodigy/</div></td></tr><tr><td style="font-weight:bold;vertical-align:top;">script_name</td><td style="vertical-align:top;">:</td><td><div></div></td></tr><tr><td style="font-weight:bold;vertical-align:top;">server_name</td><td style="vertical-align:top;">:</td><td><div>rogoberto.pythonanywhere.com</div></td></tr><tr><td style="font-weight:bold;vertical-align:top;">server_port</td><td style="vertical-align:top;">:</td><td><div>443</div></td></tr><tr><td style="font-weight:bold;vertical-align:top;">server_protocol</td><td style="vertical-align:top;">:</td><td><div>HTTP/1.1</div></td></tr><tr><td style="font-weight:bold;vertical-align:top;">uwsgi.node</td><td style="vertical-align:top;">:</td><td><div>blue-liveweb2</div></td></tr><tr><td style="font-weight:bold;vertical-align:top;">uwsgi.version</td><td style="vertical-align:top;">:</td><td><div>2.0.17.1</div></td></tr><tr><td style="font-weight:bold;vertical-align:top;">uwsgi_node</td><td style="vertical-align:top;">:</td><td><div>blue-liveweb2</div></td></tr><tr><td style="font-weight:bold;vertical-align:top;">uwsgi_version</td><td style="vertical-align:top;">:</td><td><div>2.0.17.1</div></td></tr><tr><td style="font-weight:bold;vertical-align:top;">web2py_path</td><td style="vertical-align:top;">:</td><td><div>/home/rogoberto/web2py</div></td></tr><tr><td style="font-weight:bold;vertical-align:top;">web2py_version</td><td style="vertical-align:top;">:</td><td><div>2.17.1-stable+timestamp.2018.08.06.01.02.56</div></td></tr><tr><td style="font-weight:bold;vertical-align:top;">wsgi.errors</td><td style="vertical-align:top;">:</td><td><div>&lt;uwsgi_file__bin_user_wsgi_wrapper.ErrorLogFile object at 0x7fb154b15c10&gt;</div></td></tr><tr><td style="font-weight:bold;vertical-align:top;">wsgi.file_wrapper</td><td style="vertical-align:top;">:</td><td><div>&lt;built-in function uwsgi_sendfile&gt;</div></td></tr><tr><td style="font-weight:bold;vertical-align:top;">wsgi.input</td><td style="vertical-align:top;">:</td><td><div>&lt;uwsgi._Input object at 0x7fb155f24cc0&gt;</div></td></tr><tr><td style="font-weight:bold;vertical-align:top;">wsgi.multiprocess</td><td style="vertical-align:top;">:</td><td><div>True</div></td></tr><tr><td style="font-weight:bold;vertical-align:top;">wsgi.multithread</td><td style="vertical-align:top;">:</td><td><div>False</div></td></tr><tr><td style="font-weight:bold;vertical-align:top;">wsgi.run_once</td><td style="vertical-align:top;">:</td><td><div>False</div></td></tr><tr><td style="font-weight:bold;vertical-align:top;">wsgi.url_scheme</td><td style="vertical-align:top;">:</td><td><div>https</div></td></tr><tr><td style="font-weight:bold;vertical-align:top;">wsgi.version</td><td style="vertical-align:top;">:</td><td><div><table><tr><td><div>1</div></td></tr><tr><td><div>0</div></td></tr></table></div></td></tr><tr><td style="font-weight:bold;vertical-align:top;">wsgi_errors</td><td style="vertical-align:top;">:</td><td><div>&lt;uwsgi_file__bin_user_wsgi_wrapper.ErrorLogFile object at 0x7fb154b15c10&gt;</div></td></tr><tr><td style="font-weight:bold;vertical-align:top;">wsgi_file_wrapper</td><td style="vertical-align:top;">:</td><td><div>&lt;built-in function uwsgi_sendfile&gt;</div></td></tr><tr><td style="font-weight:bold;vertical-align:top;">wsgi_input</td><td style="vertical-align:top;">:</td><td><div>&lt;uwsgi._Input object at 0x7fb155f24cc0&gt;</div></td></tr><tr><td style="font-weight:bold;vertical-align:top;">wsgi_multiprocess</td><td style="vertical-align:top;">:</td><td><div>True</div></td></tr><tr><td style="font-weight:bold;vertical-align:top;">wsgi_multithread</td><td style="vertical-align:top;">:</td><td><div>False</div></td></tr><tr><td style="font-weight:bold;vertical-align:top;">wsgi_run_once</td><td style="vertical-align:top;">:</td><td><div>False</div></td></tr><tr><td style="font-weight:bold;vertical-align:top;">wsgi_url_scheme</td><td style="vertical-align:top;">:</td><td><div>https</div></td></tr><tr><td style="font-weight:bold;vertical-align:top;">wsgi_version</td><td style="vertical-align:top;">:</td><td><div><table><tr><td><div>1</div></td></tr><tr><td><div>0</div></td></tr></table></div></td></tr></table></div></td></tr><tr><td style="font-weight:bold;vertical-align:top;">extension</td><td style="vertical-align:top;">:</td><td><div>html</div></td></tr><tr><td style="font-weight:bold;vertical-align:top;">folder</td><td style="vertical-align:top;">:</td><td><div>/home/rogoberto/web2py/applications/prodigy/</div></td></tr><tr><td style="font-weight:bold;vertical-align:top;">function</td><td style="vertical-align:top;">:</td><td><div>index</div></td></tr><tr><td style="font-weight:bold;vertical-align:top;">global_settings</td><td style="vertical-align:top;">:</td><td><div><table><tr><td style="font-weight:bold;vertical-align:top;">app_folders</td><td style="vertical-align:top;">:</td><td><div>set([&#x27;/home/rogoberto/web2py/applications/prodigy/&#x27;, &#x27;/home/rogoberto/web2py/applications/aluminum/&#x27;, &#x27;/home/rogoberto/web2py/applications/admin/&#x27;])</div></td></tr><tr><td style="font-weight:bold;vertical-align:top;">applications_parent</td><td style="vertical-align:top;">:</td><td><div>/home/rogoberto/web2py</div></td></tr><tr><td style="font-weight:bold;vertical-align:top;">db_sessions</td><td style="vertical-align:top;">:</td><td><div>set([])</div></td></tr><tr><td style="font-weight:bold;vertical-align:top;">debugging</td><td style="vertical-align:top;">:</td><td><div>True</div></td></tr><tr><td style="font-weight:bold;vertical-align:top;">gluon_parent</td><td style="vertical-align:top;">:</td><td><div>/home/rogoberto/web2py</div></td></tr><tr><td style="font-weight:bold;vertical-align:top;">is_jython</td><td style="vertical-align:top;">:</td><td><div>False</div></td></tr><tr><td style="font-weight:bold;vertical-align:top;">is_py2</td><td style="vertical-align:top;">:</td><td><div>True</div></td></tr><tr><td style="font-weight:bold;vertical-align:top;">is_pypy</td><td style="vertical-align:top;">:</td><td><div>False</div></td></tr><tr><td style="font-weight:bold;vertical-align:top;">is_source</td><td style="vertical-align:top;">:</td><td><div>True</div></td></tr><tr><td style="font-weight:bold;vertical-align:top;">local_hosts</td><td style="vertical-align:top;">:</td><td><div><table><tr><td><div>35.173.69.207</div></td></tr><tr><td><div>::ffff:127.0.0.1</div></td></tr><tr><td><div>::1</div></td></tr><tr><td><div>rogoberto.pythonanywhere.com</div></td></tr><tr><td><div>blue-liveweb2</div></td></tr><tr><td><div>127.0.0.1</div></td></tr><tr><td><div>localhost</div></td></tr></table></div></td></tr><tr><td style="font-weight:bold;vertical-align:top;">web2py_version</td><td style="vertical-align:top;">:</td><td><div>2.17.1-stable+timestamp.2018.08.06.01.02.56</div></td></tr></table></div></td></tr><tr><td style="font-weight:bold;vertical-align:top;">is_https</td><td style="vertical-align:top;">:</td><td><div>True</div></td></tr><tr><td style="font-weight:bold;vertical-align:top;">is_local</td><td style="vertical-align:top;">:</td><td><div>False</div></td></tr><tr><td style="font-weight:bold;vertical-align:top;">is_restful</td><td style="vertical-align:top;">:</td><td><div>False</div></td></tr><tr><td style="font-weight:bold;vertical-align:top;">is_scheduler</td><td style="vertical-align:top;">:</td><td><div>False</div></td></tr><tr><td style="font-weight:bold;vertical-align:top;">is_shell</td><td style="vertical-align:top;">:</td><td><div>False</div></td></tr><tr><td style="font-weight:bold;vertical-align:top;">method</td><td style="vertical-align:top;">:</td><td><div>GET</div></td></tr><tr><td style="font-weight:bold;vertical-align:top;">now</td><td style="vertical-align:top;">:</td><td><div>datetime.datetime(2020, 9, 30, 7, 54, 30, 743333)</div></td></tr><tr><td style="font-weight:bold;vertical-align:top;">raw_args</td><td style="vertical-align:top;">:</td><td><div></div></td></tr><tr><td style="font-weight:bold;vertical-align:top;">raw_extension</td><td style="vertical-align:top;">:</td><td><div>None</div></td></tr><tr><td style="font-weight:bold;vertical-align:top;">url</td><td style="vertical-align:top;">:</td><td><div>/prodigy/</div></td></tr><tr><td style="font-weight:bold;vertical-align:top;">utcnow</td><td style="vertical-align:top;">:</td><td><div>datetime.datetime(2020, 9, 30, 7, 54, 30, 743364)</div></td></tr><tr><td style="font-weight:bold;vertical-align:top;">wsgi</td><td style="vertical-align:top;">:</td><td><div>&lt;gluon.main.LazyWSGI object at 0x7fb14de6da50&gt;</div></td></tr></table></div>'
tRp60
sS'frames'
p61
(lp62
(dp63
S'file'
p64
S'/home/rogoberto/web2py/gluon/restricted.py'
p65
sS'dump'
p66
(dp67
S'environment'
p68
S"{'A': <class 'gluon.html.A'>, 'ANY_OF': <class 'gluon.validators.ANY_OF'>, 'ASSIGNJS': <function ASSIGNJS>, 'AppConfig': <function AppConfig>, 'Auth': <class 'gluon.tools.Auth'>, 'B': <class 'gluon.html.B'>, 'BEAUTIFY': <class 'gluon.html.BEAUTIFY'>, 'BODY': <class 'gluon.html.BODY'>, 'BR': <class 'gluon.html.BR'>, 'BUTTON': <class 'gluon.html.BUTTON'>, ...}"
p69
sS'ccode'
p70
S'<code object <module> at 0x7fb14dc26e30, file "/...eb2py/applications/prodigy/models/db.py", line 7>'
p71
ssS'lnum'
p72
I219
sS'lines'
p73
(dp74
I214
S'    if environment is None:'
p75
sI215
S'        environment = {}'
p76
sI216
S"    environment['__file__'] = layer"
p77
sI217
S"    environment['__name__'] = '__restricted__'"
p78
sI218
S'    try:'
p79
sI219
S'        exec(ccode, environment)'
p80
sI220
S'    except HTTP:'
p81
sI221
S'        raise'
p82
sI222
S'    except RestrictedError:'
p83
sI223
S'        # do not encapsulate (obfuscate) the original RestrictedError'
p84
ssS'call'
p85
S'(ccode=<code object <module> at 0x7fb14dc26e30, file "/...eb2py/applications/prodigy/models/db.py", line 7>, environment={\'A\': <class \'gluon.html.A\'>, \'ANY_OF\': <class \'gluon.validators.ANY_OF\'>, \'ASSIGNJS\': <function ASSIGNJS>, \'AppConfig\': <function AppConfig>, \'Auth\': <class \'gluon.tools.Auth\'>, \'B\': <class \'gluon.html.B\'>, \'BEAUTIFY\': <class \'gluon.html.BEAUTIFY\'>, \'BODY\': <class \'gluon.html.BODY\'>, \'BR\': <class \'gluon.html.BR\'>, \'BUTTON\': <class \'gluon.html.BUTTON\'>, ...}, layer=\'/home/rogoberto/web2py/applications/prodigy/models/db.py\', scode=<code object <module> at 0x7fb14dc26e30, file "/...eb2py/applications/prodigy/models/db.py", line 7>)'
p86
sS'func'
p87
S'restricted'
p88
sa(dp89
g64
S'/home/rogoberto/web2py/applications/prodigy/models/db.py'
p90
sg66
(dp91
S'auth.signature'
p92
S'<Table auth_signature (id, is_active, created_on, created_by, modified_on, modified_by)>'
p93
sS'auth'
p94
S'<gluon.tools.Auth object>'
p95
ssg72
I204
sg73
(dp96
I195
S'                Field(\'op\', \'string\', default=\'000 \xe2\x80\x93 Em Esp\xc3\xa9cie\',label="Opera\xc3\xa7\xc3\xa3o", notnull=True),'
p97
sI196
S"                Field('tipo_conta', 'string', label='Tipo de Conta', default='Poupan\xc3\xa7a', notnull=True),"
p98
sI197
S"                Field('nome_conta', 'string', label='Nome (Conta)', default='', notnull=True,requires = IS_UPPER()),"
p99
sI198
S"                Field('cpf_conta', 'string', label='CPF/CNPJ (Conta)', default='', notnull=True),"
p100
sI199
S"                Field('produtor','reference produtor', label='Produtor', notnull=True, default=1, writable=True, readable=True),"
p101
sI200
S"\t\t\t\tField('valor_comissao', 'double',label='Valor Comiss\xc3\xa3o', notnull=True, default=0, writable=False, readable=False),"
p102
sI201
S"                Field('produtor_pago', 'boolean', writable=False, readable=False, default=False),"
p103
sI202
S"                Field('taxa_operadora', 'double',label='% Operadora', notnull=True, default=0, writable=False, readable=False),"
p104
sI203
S"                Field('confirmado', 'boolean', writable=False, readable=False, default=False),"
p105
sI204
S'                auth.signature)'
p106
ssg85
S'()'
p107
sg87
S'<module>'
p108
sa(dp109
g64
S'/home/rogoberto/web2py/gluon/packages/dal/pydal/base.py'
p110
sg66
(dp111
S'fields'
p112
S'(<pydal.objects.Field object>, <pydal.objects.Field object>, <pydal.objects.Field object>, <pydal.objects.Field object>, <pydal.objects.Field object>, <pydal.objects.Field object>, <pydal.objects.Field object>, <pydal.objects.Field object>, <pydal.objects.Field object>, <pydal.objects.Field object>, <pydal.objects.Field object>, <pydal.objects.Field object>, <pydal.objects.Field object>, <pydal.objects.Field object>, <pydal.objects.Field object>, <pydal.objects.Field object>, <pydal.objects.Field object>, <pydal.objects.Field object>, <pydal.objects.Field object>, <pydal.objects.Field object>, ...)'
p113
sS'self'
p114
S'<DAL uri="sqlite://storage.sqlite">'
p115
sS'tablename'
p116
S"'operacao'"
p117
sS'kwargs'
p118
g19
sS'table'
p119
S'undefined'
p120
sS'self.lazy_define_table'
p121
S'<bound method DAL.lazy_define_table of <DAL uri="sqlite://storage.sqlite">>'
p122
ssg72
I590
sg73
(dp123
I585
S'        if self._lazy_tables:'
p124
sI586
S'            if tablename not in self._LAZY_TABLES or redefine:'
p125
sI587
S'                self._LAZY_TABLES[tablename] = (tablename, fields, kwargs)'
p126
sI588
S'            table = None'
p127
sI589
S'        else:'
p128
sI590
S'            table = self.lazy_define_table(tablename, *fields, **kwargs)'
p129
sI591
S'        if tablename not in self.tables:'
p130
sI592
S'            self.tables.append(tablename)'
p131
sI593
S'        return table'
p132
sI594
S''
ssg85
S'(self=<DAL uri="sqlite://storage.sqlite">, tablename=\'operacao\', *fields=(<pydal.objects.Field object>, <pydal.objects.Field object>, <pydal.objects.Field object>, <pydal.objects.Field object>, <pydal.objects.Field object>, <pydal.objects.Field object>, <pydal.objects.Field object>, <pydal.objects.Field object>, <pydal.objects.Field object>, <pydal.objects.Field object>, <pydal.objects.Field object>, <pydal.objects.Field object>, <pydal.objects.Field object>, <pydal.objects.Field object>, <pydal.objects.Field object>, <pydal.objects.Field object>, <pydal.objects.Field object>, <pydal.objects.Field object>, <pydal.objects.Field object>, <pydal.objects.Field object>, ...), **kwargs={})'
p133
sg87
S'define_table'
p134
sa(dp135
g64
S'/home/rogoberto/web2py/gluon/packages/dal/pydal/base.py'
p136
sg66
(dp137
S'polymodel'
p138
S'None'
p139
ssg72
I624
sg73
(dp140
I619
S'            try:'
p141
sI620
S'                GLOBAL_LOCKER.acquire()'
p142
sI621
S'                self._adapter.create_table('
p143
sI622
S'                    table, migrate=migrate,'
p144
sI623
S'                    fake_migrate=fake_migrate,'
p145
sI624
S'                    polymodel=polymodel)'
p146
sI625
S'            finally:'
p147
sI626
S'                GLOBAL_LOCKER.release()'
p148
sI627
S'        else:'
p149
sI628
S'            table._dbt = None'
p150
ssg85
S'(self=<DAL uri="sqlite://storage.sqlite">, tablename=\'operacao\', *fields=(<pydal.objects.Field object>, <pydal.objects.Field object>, <pydal.objects.Field object>, <pydal.objects.Field object>, <pydal.objects.Field object>, <pydal.objects.Field object>, <pydal.objects.Field object>, <pydal.objects.Field object>, <pydal.objects.Field object>, <pydal.objects.Field object>, <pydal.objects.Field object>, <pydal.objects.Field object>, <pydal.objects.Field object>, <pydal.objects.Field object>, <pydal.objects.Field object>, <pydal.objects.Field object>, <pydal.objects.Field object>, <pydal.objects.Field object>, <pydal.objects.Field object>, <pydal.objects.Field object>, ...), **kwargs={})'
p151
sg87
S'lazy_define_table'
p152
sa(dp153
g64
S'/home/rogoberto/web2py/gluon/packages/dal/pydal/adapters/base.py'
p154
sg66
(dp155
S'self'
p156
S'<pydal.adapters.sqlite.SQLite object>'
p157
sS'args'
p158
S'(<Table operacao (id, cliente, tipo, tipo_operaca...reated_on, created_by, modified_on, modified_by)>,)'
p159
sS'self.migrator'
p160
S'<pydal.migrator.Migrator object>'
p161
sS'self.migrator.create_table'
p162
S'<bound method Migrator.create_table of <pydal.migrator.Migrator object>>'
p163
sS'kwargs'
p164
S"{'fake_migrate': False, 'migrate': True, 'polymodel': None}"
p165
ssg72
I798
sg73
(dp166
I800
S'    def _drop_table_cleanup(self, table):'
p167
sI801
S'        super(SQLAdapter, self)._drop_table_cleanup(table)'
p168
sI802
S'        if table._dbt:'
p169
sI793
S''
sI794
S'    def bulk_insert(self, table, items):'
p170
sI795
S'        return [self.insert(table, item) for item in items]'
p171
sI796
S''
sI797
S'    def create_table(self, *args, **kwargs):'
p172
sI798
S'        return self.migrator.create_table(*args, **kwargs)'
p173
sI799
S''
ssg85
S"(self=<pydal.adapters.sqlite.SQLite object>, *args=(<Table operacao (id, cliente, tipo, tipo_operaca...reated_on, created_by, modified_on, modified_by)>,), **kwargs={'fake_migrate': False, 'migrate': True, 'polymodel': None})"
p174
sg87
S'create_table'
p175
sa(dp176
g64
S'/home/rogoberto/web2py/gluon/packages/dal/pydal/migrator.py'
p177
sg66
(dp178
S'table'
p179
S'<Table operacao (id, cliente, tipo, tipo_operaca...reated_on, created_by, modified_on, modified_by)>'
p180
sS'table._dbt'
p181
S"'/home/rogoberto/web2py/applications/prodigy/data...s/c8b669d15150d7109e5f7ab36744a5b7_operacao.table'"
p182
sS'builtinRuntimeError'
p183
S"<type 'exceptions.RuntimeError'>"
p184
ssg72
I299
sg73
(dp185
I294
S"            tfile = self.file_open(table._dbt, 'rb')"
p186
sI295
S'            try:'
p187
sI296
S'                sql_fields_old = pickle.load(tfile)'
p188
sI297
S'            except EOFError:'
p189
sI298
S'                self.file_close(tfile)'
p190
sI299
S"                raise RuntimeError('File %s appears corrupted' % table._dbt)"
p191
sI300
S'            self.file_close(tfile)'
p192
sI301
S'            # add missing rnames'
p193
sI302
S'            for key, item in sql_fields_old.items():'
p194
sI303
S'                tmp = sql_fields.get(key)'
p195
ssg85
S'(self=<pydal.migrator.Migrator object>, table=<Table operacao (id, cliente, tipo, tipo_operaca...reated_on, created_by, modified_on, modified_by)>, migrate=True, fake_migrate=False, polymodel=None)'
p196
sg87
g175
sasS'pyver'
p197
S'Python 2.7.12: /usr/local/bin/uwsgi (prefix: /usr)'
p198
sS'session'
p199
g59
(S's\x1a\x00\x00\x00<div><table></table></div>'
tRp200
sS'etype'
p201
S"<type 'exceptions.RuntimeError'>"
p202
sS'date'
p203
S'Wed Sep 30 07:54:30 2020'
p204
sS'response'
p205
g59
(S's\x05\x1a\x00\x00<div><table><tr><td style="font-weight:bold;vertical-align:top;">body</td><td style="vertical-align:top;">:</td><td><div>&lt;cStringIO.StringO object at 0x7fb14dd24848&gt;</div></td></tr><tr><td style="font-weight:bold;vertical-align:top;">cookies</td><td style="vertical-align:top;">:</td><td><div><table><tr><td style="font-weight:bold;vertical-align:top;">session_id_prodigy</td><td style="vertical-align:top;">:</td><td><div>177.37.225.149-87a4cf7a-c94f-4edb-8789-da6e17b4eff6<table><tr><td style="font-weight:bold;vertical-align:top;">comment</td><td style="vertical-align:top;">:</td><td><div></div></td></tr><tr><td style="font-weight:bold;vertical-align:top;">domain</td><td style="vertical-align:top;">:</td><td><div></div></td></tr><tr><td style="font-weight:bold;vertical-align:top;">expires</td><td style="vertical-align:top;">:</td><td><div></div></td></tr><tr><td style="font-weight:bold;vertical-align:top;">httponly</td><td style="vertical-align:top;">:</td><td><div></div></td></tr><tr><td style="font-weight:bold;vertical-align:top;">max-age</td><td style="vertical-align:top;">:</td><td><div></div></td></tr><tr><td style="font-weight:bold;vertical-align:top;">path</td><td style="vertical-align:top;">:</td><td><div>/</div></td></tr><tr><td style="font-weight:bold;vertical-align:top;">secure</td><td style="vertical-align:top;">:</td><td><div></div></td></tr><tr><td style="font-weight:bold;vertical-align:top;">version</td><td style="vertical-align:top;">:</td><td><div></div></td></tr></table></div></td></tr></table></div></td></tr><tr><td style="font-weight:bold;vertical-align:top;">delimiters</td><td style="vertical-align:top;">:</td><td><div><table><tr><td><div>{{</div></td></tr><tr><td><div>}}</div></td></tr></table></div></td></tr><tr><td style="font-weight:bold;vertical-align:top;">files</td><td style="vertical-align:top;">:</td><td><div><table></table></div></td></tr><tr><td style="font-weight:bold;vertical-align:top;">flash</td><td style="vertical-align:top;">:</td><td><div></div></td></tr><tr><td style="font-weight:bold;vertical-align:top;">form_label_separator</td><td style="vertical-align:top;">:</td><td><div></div></td></tr><tr><td style="font-weight:bold;vertical-align:top;">formstyle</td><td style="vertical-align:top;">:</td><td><div>bootstrap4_inline</div></td></tr><tr><td style="font-weight:bold;vertical-align:top;">generic_patterns</td><td style="vertical-align:top;">:</td><td><div><table></table></div></td></tr><tr><td style="font-weight:bold;vertical-align:top;">google_analytics_id</td><td style="vertical-align:top;">:</td><td><div>None</div></td></tr><tr><td style="font-weight:bold;vertical-align:top;">headers</td><td style="vertical-align:top;">:</td><td><div><table><tr><td style="font-weight:bold;vertical-align:top;">X-Powered-By</td><td style="vertical-align:top;">:</td><td><div>web2py</div></td></tr></table></div></td></tr><tr><td style="font-weight:bold;vertical-align:top;">menu</td><td style="vertical-align:top;">:</td><td><div><table></table></div></td></tr><tr><td style="font-weight:bold;vertical-align:top;">meta</td><td style="vertical-align:top;">:</td><td><div><table><tr><td style="font-weight:bold;vertical-align:top;">author</td><td style="vertical-align:top;">:</td><td><div>Your Name &lt;you@example.com&gt;</div></td></tr><tr><td style="font-weight:bold;vertical-align:top;">description</td><td style="vertical-align:top;">:</td><td><div>a cool new app</div></td></tr><tr><td style="font-weight:bold;vertical-align:top;">generator</td><td style="vertical-align:top;">:</td><td><div>Web2py Web Framework</div></td></tr><tr><td style="font-weight:bold;vertical-align:top;">keywords</td><td style="vertical-align:top;">:</td><td><div><table><tr><td><div>web2py</div></td></tr><tr><td><div>python</div></td></tr><tr><td><div>framework</div></td></tr></table></div></td></tr></table></div></td></tr><tr><td style="font-weight:bold;vertical-align:top;">models_to_run</td><td style="vertical-align:top;">:</td><td><div><table><tr><td><div>^\\w+\\.py$</div></td></tr><tr><td><div>^default/\\w+\\.py$</div></td></tr><tr><td><div>^default/index/\\w+\\.py$</div></td></tr></table></div></td></tr><tr><td style="font-weight:bold;vertical-align:top;">postprocessing</td><td style="vertical-align:top;">:</td><td><div><table></table></div></td></tr><tr><td style="font-weight:bold;vertical-align:top;">session_client</td><td style="vertical-align:top;">:</td><td><div>177.37.225.149</div></td></tr><tr><td style="font-weight:bold;vertical-align:top;">session_cookie_compression_level</td><td style="vertical-align:top;">:</td><td><div>None</div></td></tr><tr><td style="font-weight:bold;vertical-align:top;">session_cookie_expires</td><td style="vertical-align:top;">:</td><td><div>None</div></td></tr><tr><td style="font-weight:bold;vertical-align:top;">session_data_name</td><td style="vertical-align:top;">:</td><td><div>session_data_prodigy</div></td></tr><tr><td style="font-weight:bold;vertical-align:top;">session_file</td><td style="vertical-align:top;">:</td><td><div>None</div></td></tr><tr><td style="font-weight:bold;vertical-align:top;">session_filename</td><td style="vertical-align:top;">:</td><td><div>/home/rogoberto/web2py/applications/prodigy/sessions/177.37.225.149-87a4cf7a-c94f-4edb-8789-da6e17b4eff6</div></td></tr><tr><td style="font-weight:bold;vertical-align:top;">session_hash</td><td style="vertical-align:top;">:</td><td><div>c0762cbf4baf7f9af97c051e7fcb8083</div></td></tr><tr><td style="font-weight:bold;vertical-align:top;">session_id</td><td style="vertical-align:top;">:</td><td><div>177.37.225.149-87a4cf7a-c94f-4edb-8789-da6e17b4eff6</div></td></tr><tr><td style="font-weight:bold;vertical-align:top;">session_id_name</td><td style="vertical-align:top;">:</td><td><div>session_id_prodigy</div></td></tr><tr><td style="font-weight:bold;vertical-align:top;">session_masterapp</td><td style="vertical-align:top;">:</td><td><div>prodigy</div></td></tr><tr><td style="font-weight:bold;vertical-align:top;">session_new</td><td style="vertical-align:top;">:</td><td><div>True</div></td></tr><tr><td style="font-weight:bold;vertical-align:top;">session_storage_type</td><td style="vertical-align:top;">:</td><td><div>file</div></td></tr><tr><td style="font-weight:bold;vertical-align:top;">show_toolbar</td><td style="vertical-align:top;">:</td><td><div>False</div></td></tr><tr><td style="font-weight:bold;vertical-align:top;">status</td><td style="vertical-align:top;">:</td><td><div>200</div></td></tr><tr><td style="font-weight:bold;vertical-align:top;">view</td><td style="vertical-align:top;">:</td><td><div>default/index.html</div></td></tr></table></div>'
tRp206
sS'locals'
p207
(dp208
S'rtablename'
p209
S"'auth_user'"
p210
sS'referenced'
p211
S"'auth_user'"
p212
sS'dbpath'
p213
S"'/home/rogoberto/web2py/applications/prodigy/databases'"
p214
sS'migrate'
p215
S'True'
p216
sS'constraint_name'
p217
S"'operacao_modified_by__constraint'"
p218
sS'table'
p219
S'<Table operacao (id, cliente, tipo, tipo_operaca...reated_on, created_by, modified_on, modified_by)>'
p220
sS'query'
p221
S'\'CREATE TABLE "operacao"(\\n    "id" INTEGER PRIMAR...ERENCES "auth_user" ("id") ON DELETE CASCADE  \\n);\''
p222
sS'real_referenced'
p223
S'\'"auth_user"\''
p224
sS'postcreation_fields'
p225
S'[]'
p226
sS'field_type'
p227
S"'reference auth_user'"
p228
sS'field'
p229
S'<pydal.objects.Field object>'
p230
sS'self'
p231
S'<pydal.migrator.Migrator object>'
p232
sS'type_name'
p233
S"'reference'"
p234
sS'tablename'
p235
S"'operacao'"
p236
sS'not_null'
p237
S"'NOT NULL DEFAULT 0.0'"
p238
sS'ftype'
p239
S'\'INTEGER REFERENCES "auth_user" ("id") ON DELETE CASCADE  \''
p240
sS'rtable'
p241
S'<Table auth_user (id, first_name, last_name, ema...ration_key, reset_password_key, registration_id)>'
p242
sS'id_fieldname'
p243
S'\'"id"\''
p244
sS'polymodel'
p245
S'None'
p246
sS'ftype_info'
p247
S'{\'constraint_name\': \'"operacao_modified_by__constraint"\', \'field_name\': \'"modified_by"\', \'foreign_key\': \'"auth_user" ("id")\', \'index_name\': \'"modified_by__idx"\', \'null\': \'\', \'on_delete_action\': \'CASCADE\', \'unique\': \'\'}'
p248
sS'rfieldname'
p249
S"'id'"
p250
sS'tfile'
p251
S'<pydal.contrib.portalocker.LockedFile object>'
p252
sS'db'
p253
S'<DAL uri="sqlite://storage.sqlite">'
p254
sS'fake_migrate'
p255
S'False'
p256
sS'sql_fields'
p257
S'{\'agencia\': {\'length\': 512, \'notnull\': True, \'raw_rname\': \'agencia\', \'rname\': \'"agencia"\', \'sortable\': 16, \'sql\': \'CHAR(512) NOT NULL\', \'type\': \'string\', \'unique\': False}, \'banco\': {\'length\': 512, \'notnull\': True, \'raw_rname\': \'banco\', \'rname\': \'"banco"\', \'sortable\': 15, \'sql\': \'CHAR(512) NOT NULL\', \'type\': \'string\', \'unique\': False}, \'bonus\': {\'length\': 512, \'notnull\': True, \'raw_rname\': \'bonus\', \'rname\': \'"bonus"\', \'sortable\': 12, \'sql\': \'DOUBLE NOT NULL\', \'type\': \'double\', \'unique\': False}, \'cliente\': {\'length\': 512, \'notnull\': False, \'raw_rname\': \'cliente\', \'rname\': \'"cliente"\', \'sortable\': 2, \'sql\': \'INTEGER REFERENCES "cliente" ("id") ON DELETE CASCADE  \', \'type\': \'reference cliente\', \'unique\': False}, \'confirmado\': {\'length\': 512, \'notnull\': False, \'raw_rname\': \'confirmado\', \'rname\': \'"confirmado"\', \'sortable\': 26, \'sql\': \'CHAR(1)\', \'type\': \'boolean\', \'unique\': False}, \'conta\': {\'length\': 512, \'notnull\': True, \'raw_rname\': \'conta\', \'rname\': \'"conta"\', \'sortable\': 17, \'sql\': \'CHAR(512) NOT NULL\', \'type\': \'string\', \'unique\': False}, \'cpf\': {\'length\': 512, \'notnull\': False, \'raw_rname\': \'cpf\', \'rname\': \'"cpf"\', \'sortable\': 6, \'sql\': \'CHAR(512)\', \'type\': \'string\', \'unique\': False}, \'cpf_conta\': {\'length\': 512, \'notnull\': True, \'raw_rname\': \'cpf_conta\', \'rname\': \'"cpf_conta"\', \'sortable\': 21, \'sql\': \'CHAR(512) NOT NULL\', \'type\': \'string\', \'unique\': False}, \'created_by\': {\'length\': 512, \'notnull\': False, \'raw_rname\': \'created_by\', \'rname\': \'"created_by"\', \'sortable\': 29, \'sql\': \'INTEGER REFERENCES "auth_user" ("id") ON DELETE CASCADE  \', \'type\': \'reference auth_user\', \'unique\': False}, \'created_on\': {\'length\': 512, \'notnull\': False, \'raw_rname\': \'created_on\', \'rname\': \'"created_on"\', \'sortable\': 28, \'sql\': \'TIMESTAMP\', \'type\': \'datetime\', \'unique\': False}, ...}'
p258
sS'field_name'
p259
S"'modified_by'"
p260
sS'types'
p261
S"{'big-id': 'INTEGER PRIMARY KEY AUTOINCREMENT', 'big-reference': 'INTEGER REFERENCES %(foreign_key)s ON DELETE %(on_delete_action)s %(null)s %(unique)s', 'bigint': 'INTEGER', 'blob': 'BLOB', 'boolean': 'CHAR(1)', 'date': 'DATE', 'datetime': 'TIMESTAMP', 'decimal': 'DOUBLE', 'double': 'DOUBLE', 'float': 'DOUBLE', ...}"
p262
sS'sortable'
p263
S'31'
p264
sS'sql_fields_aux'
p265
S'{\'agencia\': {\'sql\': "CHAR(512) NOT NULL DEFAULT \'000-0\'"}, \'banco\': {\'sql\': "CHAR(512) NOT NULL DEFAULT \'000 \\xe2\\x80\\x93 Em Esp\\xc3\\xa9cie.\'"}, \'bonus\': {\'sql\': \'DOUBLE NOT NULL DEFAULT 0.0\'}, \'cliente\': {\'sql\': \'INTEGER REFERENCES "cliente" ("id") ON DELETE CASCADE  \'}, \'confirmado\': {\'sql\': \'CHAR(1)\'}, \'conta\': {\'sql\': "CHAR(512) NOT NULL DEFAULT \'000-0\'"}, \'cpf\': {\'sql\': \'CHAR(512)\'}, \'cpf_conta\': {\'sql\': "CHAR(512) NOT NULL DEFAULT \'\'"}, \'created_by\': {\'sql\': \'INTEGER REFERENCES "auth_user" ("id") ON DELETE CASCADE  \'}, \'created_on\': {\'sql\': \'TIMESTAMP\'}, ...}'
p266
sS'TFK'
p267
g19
sS'fields'
p268
S'\'"id" INTEGER PRIMARY KEY AUTOINCREMENT,\\n    "cli...REFERENCES "auth_user" ("id") ON DELETE CASCADE  \''
p269
sS'uri'
p270
S"'sqlite://storage.sqlite'"
p271
sS'rfield'
p272
S'<pydal.objects.Field object>'
p273
sS'other'
p274
S"';'"
p275
sssS'traceback'
p276
S'Traceback (most recent call last):\n  File "/home/rogoberto/web2py/gluon/restricted.py", line 219, in restricted\n    exec(ccode, environment)\n  File "/home/rogoberto/web2py/applications/prodigy/models/db.py", line 204, in <module>\n    auth.signature)\n  File "/home/rogoberto/web2py/gluon/packages/dal/pydal/base.py", line 590, in define_table\n    table = self.lazy_define_table(tablename, *fields, **kwargs)\n  File "/home/rogoberto/web2py/gluon/packages/dal/pydal/base.py", line 624, in lazy_define_table\n    polymodel=polymodel)\n  File "/home/rogoberto/web2py/gluon/packages/dal/pydal/adapters/base.py", line 798, in create_table\n    return self.migrator.create_table(*args, **kwargs)\n  File "/home/rogoberto/web2py/gluon/packages/dal/pydal/migrator.py", line 299, in create_table\n    raise RuntimeError(\'File %s appears corrupted\' % table._dbt)\nRuntimeError: File /home/rogoberto/web2py/applications/prodigy/databases/c8b669d15150d7109e5f7ab36744a5b7_operacao.table appears corrupted\n'
p277
s.