(dp1
S'output'
p2
S"<type 'exceptions.RuntimeError'> File /home/rogoberto/web2py/applications/prodigy/databases/c8b669d15150d7109e5f7ab36744a5b7_operacao.table appears corrupted"
p3
sS'layer'
p4
S'/home/rogoberto/web2py/applications/prodigy/models/db.py'
p5
sS'code'
p6
S'<code object <module> at 0x7f3bb71d50b0, file "/home/rogoberto/web2py/applications/prodigy/models/db.py", line 7>'
p7
sS'snapshot'
p8
(dp9
S'exception'
p10
(dp11
S'__getslice__'
p12
S"<method-wrapper '__getslice__' of exceptions.RuntimeError object>"
p13
sS'__str__'
p14
S"<method-wrapper '__str__' of exceptions.RuntimeError object>"
p15
sS'__reduce__'
p16
S'<built-in method __reduce__ of exceptions.RuntimeError object>'
p17
sS'__dict__'
p18
S'{}'
p19
sS'message'
p20
S"'File /home/rogoberto/web2py/applications/prodigy...9e5f7ab36744a5b7_operacao.table appears corrupted'"
p21
sS'__sizeof__'
p22
S'<built-in method __sizeof__ of exceptions.RuntimeError object>'
p23
sS'__init__'
p24
S"<method-wrapper '__init__' of exceptions.RuntimeError object>"
p25
sS'__setattr__'
p26
S"<method-wrapper '__setattr__' of exceptions.RuntimeError object>"
p27
sS'__reduce_ex__'
p28
S'<built-in method __reduce_ex__ of exceptions.RuntimeError object>'
p29
sS'__new__'
p30
S'<built-in method __new__ of type object>'
p31
sS'__format__'
p32
S'<built-in method __format__ of exceptions.RuntimeError object>'
p33
sS'__class__'
p34
S"<type 'exceptions.RuntimeError'>"
p35
sS'__doc__'
p36
S"'Unspecified run-time error.'"
p37
sS'__getitem__'
p38
S"<method-wrapper '__getitem__' of exceptions.RuntimeError object>"
p39
sS'__setstate__'
p40
S'<built-in method __setstate__ of exceptions.RuntimeError object>'
p41
sS'__getattribute__'
p42
S"<method-wrapper '__getattribute__' of exceptions.RuntimeError object>"
p43
sS'args'
p44
S"('File /home/rogoberto/web2py/applications/prodigy...9e5f7ab36744a5b7_operacao.table appears corrupted',)"
p45
sS'__subclasshook__'
p46
S'<built-in method __subclasshook__ of type object>'
p47
sS'__unicode__'
p48
S'<built-in method __unicode__ of exceptions.RuntimeError object>'
p49
sS'__delattr__'
p50
S"<method-wrapper '__delattr__' of exceptions.RuntimeError object>"
p51
sS'__repr__'
p52
S"<method-wrapper '__repr__' of exceptions.RuntimeError object>"
p53
sS'__hash__'
p54
S"<method-wrapper '__hash__' of exceptions.RuntimeError object>"
p55
ssS'evalue'
p56
S'File /home/rogoberto/web2py/applications/prodigy/databases/c8b669d15150d7109e5f7ab36744a5b7_operacao.table appears corrupted'
p57
sS'request'
p58
cgluon.html
XML_unpickle
p59
(S'sRh\x00\x00<div><table><tr><td style="font-weight:bold;vertical-align:top;">ajax</td><td style="vertical-align:top;">:</td><td><div>True</div></td></tr><tr><td style="font-weight:bold;vertical-align:top;">application</td><td style="vertical-align:top;">:</td><td><div>prodigy</div></td></tr><tr><td style="font-weight:bold;vertical-align:top;">args</td><td style="vertical-align:top;">:</td><td><div><table></table></div></td></tr><tr><td style="font-weight:bold;vertical-align:top;">cid</td><td style="vertical-align:top;">:</td><td><div>c679550892194</div></td></tr><tr><td style="font-weight:bold;vertical-align:top;">client</td><td style="vertical-align:top;">:</td><td><div>177.37.225.149</div></td></tr><tr><td style="font-weight:bold;vertical-align:top;">controller</td><td style="vertical-align:top;">:</td><td><div>appadmin</div></td></tr><tr><td style="font-weight:bold;vertical-align:top;">cookies</td><td style="vertical-align:top;">:</td><td><div><table><tr><td style="font-weight:bold;vertical-align:top;">session_id_admin</td><td style="vertical-align:top;">:</td><td><div>177.37.225.149-8dd6b52d-22c6-4fb6-a831-f0a6beaa75fd<table><tr><td style="font-weight:bold;vertical-align:top;">comment</td><td style="vertical-align:top;">:</td><td><div></div></td></tr><tr><td style="font-weight:bold;vertical-align:top;">domain</td><td style="vertical-align:top;">:</td><td><div></div></td></tr><tr><td style="font-weight:bold;vertical-align:top;">expires</td><td style="vertical-align:top;">:</td><td><div></div></td></tr><tr><td style="font-weight:bold;vertical-align:top;">httponly</td><td style="vertical-align:top;">:</td><td><div></div></td></tr><tr><td style="font-weight:bold;vertical-align:top;">max-age</td><td style="vertical-align:top;">:</td><td><div></div></td></tr><tr><td style="font-weight:bold;vertical-align:top;">path</td><td style="vertical-align:top;">:</td><td><div></div></td></tr><tr><td style="font-weight:bold;vertical-align:top;">secure</td><td style="vertical-align:top;">:</td><td><div></div></td></tr><tr><td style="font-weight:bold;vertical-align:top;">version</td><td style="vertical-align:top;">:</td><td><div></div></td></tr></table></div></td></tr><tr><td style="font-weight:bold;vertical-align:top;">session_id_aluminum</td><td style="vertical-align:top;">:</td><td><div>177.37.225.149-a692390d-8263-4f77-be22-e1a301d63704<table><tr><td style="font-weight:bold;vertical-align:top;">comment</td><td style="vertical-align:top;">:</td><td><div></div></td></tr><tr><td style="font-weight:bold;vertical-align:top;">domain</td><td style="vertical-align:top;">:</td><td><div></div></td></tr><tr><td style="font-weight:bold;vertical-align:top;">expires</td><td style="vertical-align:top;">:</td><td><div></div></td></tr><tr><td style="font-weight:bold;vertical-align:top;">httponly</td><td style="vertical-align:top;">:</td><td><div></div></td></tr><tr><td style="font-weight:bold;vertical-align:top;">max-age</td><td style="vertical-align:top;">:</td><td><div></div></td></tr><tr><td style="font-weight:bold;vertical-align:top;">path</td><td style="vertical-align:top;">:</td><td><div></div></td></tr><tr><td style="font-weight:bold;vertical-align:top;">secure</td><td style="vertical-align:top;">:</td><td><div></div></td></tr><tr><td style="font-weight:bold;vertical-align:top;">version</td><td style="vertical-align:top;">:</td><td><div></div></td></tr></table></div></td></tr><tr><td style="font-weight:bold;vertical-align:top;">session_id_overcoming</td><td style="vertical-align:top;">:</td><td><div>177.37.225.149-390c4ac2-d23e-4985-9076-f7077d2682e0<table><tr><td style="font-weight:bold;vertical-align:top;">comment</td><td style="vertical-align:top;">:</td><td><div></div></td></tr><tr><td style="font-weight:bold;vertical-align:top;">domain</td><td style="vertical-align:top;">:</td><td><div></div></td></tr><tr><td style="font-weight:bold;vertical-align:top;">expires</td><td style="vertical-align:top;">:</td><td><div></div></td></tr><tr><td style="font-weight:bold;vertical-align:top;">httponly</td><td style="vertical-align:top;">:</td><td><div></div></td></tr><tr><td style="font-weight:bold;vertical-align:top;">max-age</td><td style="vertical-align:top;">:</td><td><div></div></td></tr><tr><td style="font-weight:bold;vertical-align:top;">path</td><td style="vertical-align:top;">:</td><td><div></div></td></tr><tr><td style="font-weight:bold;vertical-align:top;">secure</td><td style="vertical-align:top;">:</td><td><div></div></td></tr><tr><td style="font-weight:bold;vertical-align:top;">version</td><td style="vertical-align:top;">:</td><td><div></div></td></tr></table></div></td></tr><tr><td style="font-weight:bold;vertical-align:top;">session_id_welcome</td><td style="vertical-align:top;">:</td><td><div>177.37.225.149-ff9491be-c4ef-43c5-8266-fd513b583508<table><tr><td style="font-weight:bold;vertical-align:top;">comment</td><td style="vertical-align:top;">:</td><td><div></div></td></tr><tr><td style="font-weight:bold;vertical-align:top;">domain</td><td style="vertical-align:top;">:</td><td><div></div></td></tr><tr><td style="font-weight:bold;vertical-align:top;">expires</td><td style="vertical-align:top;">:</td><td><div></div></td></tr><tr><td style="font-weight:bold;vertical-align:top;">httponly</td><td style="vertical-align:top;">:</td><td><div></div></td></tr><tr><td style="font-weight:bold;vertical-align:top;">max-age</td><td style="vertical-align:top;">:</td><td><div></div></td></tr><tr><td style="font-weight:bold;vertical-align:top;">path</td><td style="vertical-align:top;">:</td><td><div></div></td></tr><tr><td style="font-weight:bold;vertical-align:top;">secure</td><td style="vertical-align:top;">:</td><td><div></div></td></tr><tr><td style="font-weight:bold;vertical-align:top;">version</td><td style="vertical-align:top;">:</td><td><div></div></td></tr></table></div></td></tr></table></div></td></tr><tr><td style="font-weight:bold;vertical-align:top;">env</td><td style="vertical-align:top;">:</td><td><div><table><tr><td style="font-weight:bold;vertical-align:top;">CONTENT_LENGTH</td><td style="vertical-align:top;">:</td><td><div></div></td></tr><tr><td style="font-weight:bold;vertical-align:top;">CONTENT_TYPE</td><td style="vertical-align:top;">:</td><td><div>application/x-www-form-urlencoded; charset=UTF-8</div></td></tr><tr><td style="font-weight:bold;vertical-align:top;">DOCUMENT_ROOT</td><td style="vertical-align:top;">:</td><td><div>/usr/local/openresty/nginx/html</div></td></tr><tr><td style="font-weight:bold;vertical-align:top;">HTTPS</td><td style="vertical-align:top;">:</td><td><div>on</div></td></tr><tr><td style="font-weight:bold;vertical-align:top;">HTTP_ACCEPT</td><td style="vertical-align:top;">:</td><td><div>*/*</div></td></tr><tr><td style="font-weight:bold;vertical-align:top;">HTTP_ACCEPT_ENCODING</td><td style="vertical-align:top;">:</td><td><div>gzip, deflate, br</div></td></tr><tr><td style="font-weight:bold;vertical-align:top;">HTTP_ACCEPT_LANGUAGE</td><td style="vertical-align:top;">:</td><td><div>pt-BR,pt;q=0.9,en-US;q=0.8,en;q=0.7</div></td></tr><tr><td style="font-weight:bold;vertical-align:top;">HTTP_CONNECTION</td><td style="vertical-align:top;">:</td><td><div>close</div></td></tr><tr><td style="font-weight:bold;vertical-align:top;">HTTP_CONTENT_TYPE</td><td style="vertical-align:top;">:</td><td><div>application/x-www-form-urlencoded; charset=UTF-8</div></td></tr><tr><td style="font-weight:bold;vertical-align:top;">HTTP_COOKIE</td><td style="vertical-align:top;">:</td><td><div>_ga=GA1.2.786035724.1591068301; _fbp=fb.1.1601074374993.1568363258; session_id_admin=177.37.225.149-8dd6b52d-22c6-4fb6-a831-f0a6beaa75fd; _gid=GA1.2.415827284.1601452291; session_id_aluminum=177.37.225.149-a692390d-8263-4f77-be22-e1a301d63704; session_id_overcoming=177.37.225.149-390c4ac2-d23e-4985-9076-f7077d2682e0; session_id_welcome=177.37.225.149-ff9491be-c4ef-43c5-8266-fd513b583508</div></td></tr><tr><td style="font-weight:bold;vertical-align:top;">HTTP_HOST</td><td style="vertical-align:top;">:</td><td><div>rogoberto.pythonanywhere.com</div></td></tr><tr><td style="font-weight:bold;vertical-align:top;">HTTP_REFERER</td><td style="vertical-align:top;">:</td><td><div>https://rogoberto.pythonanywhere.com/admin/default/edit/prodigy/models/db.py?id=models__db__py</div></td></tr><tr><td style="font-weight:bold;vertical-align:top;">HTTP_SEC_FETCH_DEST</td><td style="vertical-align:top;">:</td><td><div>empty</div></td></tr><tr><td style="font-weight:bold;vertical-align:top;">HTTP_SEC_FETCH_MODE</td><td style="vertical-align:top;">:</td><td><div>cors</div></td></tr><tr><td style="font-weight:bold;vertical-align:top;">HTTP_SEC_FETCH_SITE</td><td style="vertical-align:top;">:</td><td><div>same-origin</div></td></tr><tr><td style="font-weight:bold;vertical-align:top;">HTTP_USER_AGENT</td><td style="vertical-align:top;">:</td><td><div>Mozilla/5.0 (Windows NT 6.1; Win64; x64) AppleWebKit/537.36 (KHTML, like Gecko) Chrome/85.0.4183.121 Safari/537.36</div></td></tr><tr><td style="font-weight:bold;vertical-align:top;">HTTP_WEB2PY_COMPONENT_ELEMENT</td><td style="vertical-align:top;">:</td><td><div>c679550892194</div></td></tr><tr><td style="font-weight:bold;vertical-align:top;">HTTP_WEB2PY_COMPONENT_LOCATION</td><td style="vertical-align:top;">:</td><td><div>https://rogoberto.pythonanywhere.com/admin/default/edit/prodigy/models/db.py?id=models__db__py</div></td></tr><tr><td style="font-weight:bold;vertical-align:top;">HTTP_X_FORWARDED_FOR</td><td style="vertical-align:top;">:</td><td><div>177.37.225.149</div></td></tr><tr><td style="font-weight:bold;vertical-align:top;">HTTP_X_REAL_IP</td><td style="vertical-align:top;">:</td><td><div>177.37.225.149</div></td></tr><tr><td style="font-weight:bold;vertical-align:top;">HTTP_X_REQUESTED_WITH</td><td style="vertical-align:top;">:</td><td><div>XMLHttpRequest</div></td></tr><tr><td style="font-weight:bold;vertical-align:top;">PATH_INFO</td><td style="vertical-align:top;">:</td><td><div>/prodigy/appadmin/hooks</div></td></tr><tr><td style="font-weight:bold;vertical-align:top;">QUERY_STRING</td><td style="vertical-align:top;">:</td><td><div></div></td></tr><tr><td style="font-weight:bold;vertical-align:top;">REMOTE_ADDR</td><td style="vertical-align:top;">:</td><td><div>10.0.0.124</div></td></tr><tr><td style="font-weight:bold;vertical-align:top;">REMOTE_PORT</td><td style="vertical-align:top;">:</td><td><div>47576</div></td></tr><tr><td style="font-weight:bold;vertical-align:top;">REQUEST_METHOD</td><td style="vertical-align:top;">:</td><td><div>GET</div></td></tr><tr><td style="font-weight:bold;vertical-align:top;">REQUEST_URI</td><td style="vertical-align:top;">:</td><td><div>/prodigy/appadmin/hooks</div></td></tr><tr><td style="font-weight:bold;vertical-align:top;">SCRIPT_NAME</td><td style="vertical-align:top;">:</td><td><div></div></td></tr><tr><td style="font-weight:bold;vertical-align:top;">SERVER_NAME</td><td style="vertical-align:top;">:</td><td><div>rogoberto.pythonanywhere.com</div></td></tr><tr><td style="font-weight:bold;vertical-align:top;">SERVER_PORT</td><td style="vertical-align:top;">:</td><td><div>443</div></td></tr><tr><td style="font-weight:bold;vertical-align:top;">SERVER_PROTOCOL</td><td style="vertical-align:top;">:</td><td><div>HTTP/1.1</div></td></tr><tr><td style="font-weight:bold;vertical-align:top;">app_folders</td><td style="vertical-align:top;">:</td><td><div>set([&#x27;/home/rogoberto/web2py/applications/localfs/&#x27;, &#x27;/home/rogoberto/web2py/applications/prodigy/&#x27;, &#x27;/home/rogoberto/web2py/applications/welcome/&#x27;, &#x27;/home/rogoberto/web2py/applications/overcoming/&#x27;, &#x27;/home/rogoberto/web2py/applications/admin/&#x27;])</div></td></tr><tr><td style="font-weight:bold;vertical-align:top;">applications_parent</td><td style="vertical-align:top;">:</td><td><div>/home/rogoberto/web2py</div></td></tr><tr><td style="font-weight:bold;vertical-align:top;">content_length</td><td style="vertical-align:top;">:</td><td><div></div></td></tr><tr><td style="font-weight:bold;vertical-align:top;">content_type</td><td style="vertical-align:top;">:</td><td><div>application/x-www-form-urlencoded; charset=UTF-8</div></td></tr><tr><td style="font-weight:bold;vertical-align:top;">db_sessions</td><td style="vertical-align:top;">:</td><td><div>set([])</div></td></tr><tr><td style="font-weight:bold;vertical-align:top;">debugging</td><td style="vertical-align:top;">:</td><td><div>True</div></td></tr><tr><td style="font-weight:bold;vertical-align:top;">document_root</td><td style="vertical-align:top;">:</td><td><div>/usr/local/openresty/nginx/html</div></td></tr><tr><td style="font-weight:bold;vertical-align:top;">gluon_parent</td><td style="vertical-align:top;">:</td><td><div>/home/rogoberto/web2py</div></td></tr><tr><td style="font-weight:bold;vertical-align:top;">http_accept</td><td style="vertical-align:top;">:</td><td><div>*/*</div></td></tr><tr><td style="font-weight:bold;vertical-align:top;">http_accept_encoding</td><td style="vertical-align:top;">:</td><td><div>gzip, deflate, br</div></td></tr><tr><td style="font-weight:bold;vertical-align:top;">http_accept_language</td><td style="vertical-align:top;">:</td><td><div>pt-BR,pt;q=0.9,en-US;q=0.8,en;q=0.7</div></td></tr><tr><td style="font-weight:bold;vertical-align:top;">http_connection</td><td style="vertical-align:top;">:</td><td><div>close</div></td></tr><tr><td style="font-weight:bold;vertical-align:top;">http_content_type</td><td style="vertical-align:top;">:</td><td><div>application/x-www-form-urlencoded; charset=UTF-8</div></td></tr><tr><td style="font-weight:bold;vertical-align:top;">http_cookie</td><td style="vertical-align:top;">:</td><td><div>_ga=GA1.2.786035724.1591068301; _fbp=fb.1.1601074374993.1568363258; session_id_admin=177.37.225.149-8dd6b52d-22c6-4fb6-a831-f0a6beaa75fd; _gid=GA1.2.415827284.1601452291; session_id_aluminum=177.37.225.149-a692390d-8263-4f77-be22-e1a301d63704; session_id_overcoming=177.37.225.149-390c4ac2-d23e-4985-9076-f7077d2682e0; session_id_welcome=177.37.225.149-ff9491be-c4ef-43c5-8266-fd513b583508</div></td></tr><tr><td style="font-weight:bold;vertical-align:top;">http_host</td><td style="vertical-align:top;">:</td><td><div>rogoberto.pythonanywhere.com</div></td></tr><tr><td style="font-weight:bold;vertical-align:top;">http_referer</td><td style="vertical-align:top;">:</td><td><div>https://rogoberto.pythonanywhere.com/admin/default/edit/prodigy/models/db.py?id=models__db__py</div></td></tr><tr><td style="font-weight:bold;vertical-align:top;">http_sec_fetch_dest</td><td style="vertical-align:top;">:</td><td><div>empty</div></td></tr><tr><td style="font-weight:bold;vertical-align:top;">http_sec_fetch_mode</td><td style="vertical-align:top;">:</td><td><div>cors</div></td></tr><tr><td style="font-weight:bold;vertical-align:top;">http_sec_fetch_site</td><td style="vertical-align:top;">:</td><td><div>same-origin</div></td></tr><tr><td style="font-weight:bold;vertical-align:top;">http_user_agent</td><td style="vertical-align:top;">:</td><td><div>Mozilla/5.0 (Windows NT 6.1; Win64; x64) AppleWebKit/537.36 (KHTML, like Gecko) Chrome/85.0.4183.121 Safari/537.36</div></td></tr><tr><td style="font-weight:bold;vertical-align:top;">http_web2py_component_element</td><td style="vertical-align:top;">:</td><td><div>c679550892194</div></td></tr><tr><td style="font-weight:bold;vertical-align:top;">http_web2py_component_location</td><td style="vertical-align:top;">:</td><td><div>https://rogoberto.pythonanywhere.com/admin/default/edit/prodigy/models/db.py?id=models__db__py</div></td></tr><tr><td style="font-weight:bold;vertical-align:top;">http_x_forwarded_for</td><td style="vertical-align:top;">:</td><td><div>177.37.225.149</div></td></tr><tr><td style="font-weight:bold;vertical-align:top;">http_x_real_ip</td><td style="vertical-align:top;">:</td><td><div>177.37.225.149</div></td></tr><tr><td style="font-weight:bold;vertical-align:top;">http_x_requested_with</td><td style="vertical-align:top;">:</td><td><div>XMLHttpRequest</div></td></tr><tr><td style="font-weight:bold;vertical-align:top;">https</td><td style="vertical-align:top;">:</td><td><div>on</div></td></tr><tr><td style="font-weight:bold;vertical-align:top;">is_jython</td><td style="vertical-align:top;">:</td><td><div>False</div></td></tr><tr><td style="font-weight:bold;vertical-align:top;">is_py2</td><td style="vertical-align:top;">:</td><td><div>True</div></td></tr><tr><td style="font-weight:bold;vertical-align:top;">is_pypy</td><td style="vertical-align:top;">:</td><td><div>False</div></td></tr><tr><td style="font-weight:bold;vertical-align:top;">is_source</td><td style="vertical-align:top;">:</td><td><div>True</div></td></tr><tr><td style="font-weight:bold;vertical-align:top;">local_hosts</td><td style="vertical-align:top;">:</td><td><div><table><tr><td><div>35.173.69.207</div></td></tr><tr><td><div>::ffff:127.0.0.1</div></td></tr><tr><td><div>::1</div></td></tr><tr><td><div>rogoberto.pythonanywhere.com</div></td></tr><tr><td><div>blue-liveweb2</div></td></tr><tr><td><div>127.0.0.1</div></td></tr><tr><td><div>localhost</div></td></tr></table></div></td></tr><tr><td style="font-weight:bold;vertical-align:top;">path_info</td><td style="vertical-align:top;">:</td><td><div>/prodigy/appadmin/hooks</div></td></tr><tr><td style="font-weight:bold;vertical-align:top;">query_string</td><td style="vertical-align:top;">:</td><td><div></div></td></tr><tr><td style="font-weight:bold;vertical-align:top;">remote_addr</td><td style="vertical-align:top;">:</td><td><div>10.0.0.124</div></td></tr><tr><td style="font-weight:bold;vertical-align:top;">remote_port</td><td style="vertical-align:top;">:</td><td><div>47576</div></td></tr><tr><td style="font-weight:bold;vertical-align:top;">request_method</td><td style="vertical-align:top;">:</td><td><div>GET</div></td></tr><tr><td style="font-weight:bold;vertical-align:top;">request_uri</td><td style="vertical-align:top;">:</td><td><div>/prodigy/appadmin/hooks</div></td></tr><tr><td style="font-weight:bold;vertical-align:top;">script_name</td><td style="vertical-align:top;">:</td><td><div></div></td></tr><tr><td style="font-weight:bold;vertical-align:top;">server_name</td><td style="vertical-align:top;">:</td><td><div>rogoberto.pythonanywhere.com</div></td></tr><tr><td style="font-weight:bold;vertical-align:top;">server_port</td><td style="vertical-align:top;">:</td><td><div>443</div></td></tr><tr><td style="font-weight:bold;vertical-align:top;">server_protocol</td><td style="vertical-align:top;">:</td><td><div>HTTP/1.1</div></td></tr><tr><td style="font-weight:bold;vertical-align:top;">uwsgi.node</td><td style="vertical-align:top;">:</td><td><div>blue-liveweb2</div></td></tr><tr><td style="font-weight:bold;vertical-align:top;">uwsgi.version</td><td style="vertical-align:top;">:</td><td><div>2.0.17.1</div></td></tr><tr><td style="font-weight:bold;vertical-align:top;">uwsgi_node</td><td style="vertical-align:top;">:</td><td><div>blue-liveweb2</div></td></tr><tr><td style="font-weight:bold;vertical-align:top;">uwsgi_version</td><td style="vertical-align:top;">:</td><td><div>2.0.17.1</div></td></tr><tr><td style="font-weight:bold;vertical-align:top;">web2py_path</td><td style="vertical-align:top;">:</td><td><div>/home/rogoberto/web2py</div></td></tr><tr><td style="font-weight:bold;vertical-align:top;">web2py_version</td><td style="vertical-align:top;">:</td><td><div>2.17.1-stable+timestamp.2018.08.06.01.02.56</div></td></tr><tr><td style="font-weight:bold;vertical-align:top;">wsgi.errors</td><td style="vertical-align:top;">:</td><td><div>&lt;uwsgi_file__bin_user_wsgi_wrapper.ErrorLogFile object at 0x7f3bbdac1c10&gt;</div></td></tr><tr><td style="font-weight:bold;vertical-align:top;">wsgi.file_wrapper</td><td style="vertical-align:top;">:</td><td><div>&lt;built-in function uwsgi_sendfile&gt;</div></td></tr><tr><td style="font-weight:bold;vertical-align:top;">wsgi.input</td><td style="vertical-align:top;">:</td><td><div>&lt;uwsgi._Input object at 0x7f3bbeed0f18&gt;</div></td></tr><tr><td style="font-weight:bold;vertical-align:top;">wsgi.multiprocess</td><td style="vertical-align:top;">:</td><td><div>True</div></td></tr><tr><td style="font-weight:bold;vertical-align:top;">wsgi.multithread</td><td style="vertical-align:top;">:</td><td><div>False</div></td></tr><tr><td style="font-weight:bold;vertical-align:top;">wsgi.run_once</td><td style="vertical-align:top;">:</td><td><div>False</div></td></tr><tr><td style="font-weight:bold;vertical-align:top;">wsgi.url_scheme</td><td style="vertical-align:top;">:</td><td><div>https</div></td></tr><tr><td style="font-weight:bold;vertical-align:top;">wsgi.version</td><td style="vertical-align:top;">:</td><td><div><table><tr><td><div>1</div></td></tr><tr><td><div>0</div></td></tr></table></div></td></tr><tr><td style="font-weight:bold;vertical-align:top;">wsgi_errors</td><td style="vertical-align:top;">:</td><td><div>&lt;uwsgi_file__bin_user_wsgi_wrapper.ErrorLogFile object at 0x7f3bbdac1c10&gt;</div></td></tr><tr><td style="font-weight:bold;vertical-align:top;">wsgi_file_wrapper</td><td style="vertical-align:top;">:</td><td><div>&lt;built-in function uwsgi_sendfile&gt;</div></td></tr><tr><td style="font-weight:bold;vertical-align:top;">wsgi_input</td><td style="vertical-align:top;">:</td><td><div>&lt;uwsgi._Input object at 0x7f3bbeed0f18&gt;</div></td></tr><tr><td style="font-weight:bold;vertical-align:top;">wsgi_multiprocess</td><td style="vertical-align:top;">:</td><td><div>True</div></td></tr><tr><td style="font-weight:bold;vertical-align:top;">wsgi_multithread</td><td style="vertical-align:top;">:</td><td><div>False</div></td></tr><tr><td style="font-weight:bold;vertical-align:top;">wsgi_run_once</td><td style="vertical-align:top;">:</td><td><div>False</div></td></tr><tr><td style="font-weight:bold;vertical-align:top;">wsgi_url_scheme</td><td style="vertical-align:top;">:</td><td><div>https</div></td></tr><tr><td style="font-weight:bold;vertical-align:top;">wsgi_version</td><td style="vertical-align:top;">:</td><td><div><table><tr><td><div>1</div></td></tr><tr><td><div>0</div></td></tr></table></div></td></tr></table></div></td></tr><tr><td style="font-weight:bold;vertical-align:top;">extension</td><td style="vertical-align:top;">:</td><td><div>html</div></td></tr><tr><td style="font-weight:bold;vertical-align:top;">folder</td><td style="vertical-align:top;">:</td><td><div>/home/rogoberto/web2py/applications/prodigy/</div></td></tr><tr><td style="font-weight:bold;vertical-align:top;">function</td><td style="vertical-align:top;">:</td><td><div>hooks</div></td></tr><tr><td style="font-weight:bold;vertical-align:top;">global_settings</td><td style="vertical-align:top;">:</td><td><div><table><tr><td style="font-weight:bold;vertical-align:top;">app_folders</td><td style="vertical-align:top;">:</td><td><div>set([&#x27;/home/rogoberto/web2py/applications/localfs/&#x27;, &#x27;/home/rogoberto/web2py/applications/prodigy/&#x27;, &#x27;/home/rogoberto/web2py/applications/welcome/&#x27;, &#x27;/home/rogoberto/web2py/applications/overcoming/&#x27;, &#x27;/home/rogoberto/web2py/applications/admin/&#x27;])</div></td></tr><tr><td style="font-weight:bold;vertical-align:top;">applications_parent</td><td style="vertical-align:top;">:</td><td><div>/home/rogoberto/web2py</div></td></tr><tr><td style="font-weight:bold;vertical-align:top;">db_sessions</td><td style="vertical-align:top;">:</td><td><div>set([])</div></td></tr><tr><td style="font-weight:bold;vertical-align:top;">debugging</td><td style="vertical-align:top;">:</td><td><div>True</div></td></tr><tr><td style="font-weight:bold;vertical-align:top;">gluon_parent</td><td style="vertical-align:top;">:</td><td><div>/home/rogoberto/web2py</div></td></tr><tr><td style="font-weight:bold;vertical-align:top;">is_jython</td><td style="vertical-align:top;">:</td><td><div>False</div></td></tr><tr><td style="font-weight:bold;vertical-align:top;">is_py2</td><td style="vertical-align:top;">:</td><td><div>True</div></td></tr><tr><td style="font-weight:bold;vertical-align:top;">is_pypy</td><td style="vertical-align:top;">:</td><td><div>False</div></td></tr><tr><td style="font-weight:bold;vertical-align:top;">is_source</td><td style="vertical-align:top;">:</td><td><div>True</div></td></tr><tr><td style="font-weight:bold;vertical-align:top;">local_hosts</td><td style="vertical-align:top;">:</td><td><div><table><tr><td><div>35.173.69.207</div></td></tr><tr><td><div>::ffff:127.0.0.1</div></td></tr><tr><td><div>::1</div></td></tr><tr><td><div>rogoberto.pythonanywhere.com</div></td></tr><tr><td><div>blue-liveweb2</div></td></tr><tr><td><div>127.0.0.1</div></td></tr><tr><td><div>localhost</div></td></tr></table></div></td></tr><tr><td style="font-weight:bold;vertical-align:top;">web2py_version</td><td style="vertical-align:top;">:</td><td><div>2.17.1-stable+timestamp.2018.08.06.01.02.56</div></td></tr></table></div></td></tr><tr><td style="font-weight:bold;vertical-align:top;">is_https</td><td style="vertical-align:top;">:</td><td><div>True</div></td></tr><tr><td style="font-weight:bold;vertical-align:top;">is_local</td><td style="vertical-align:top;">:</td><td><div>False</div></td></tr><tr><td style="font-weight:bold;vertical-align:top;">is_restful</td><td style="vertical-align:top;">:</td><td><div>False</div></td></tr><tr><td style="font-weight:bold;vertical-align:top;">is_scheduler</td><td style="vertical-align:top;">:</td><td><div>False</div></td></tr><tr><td style="font-weight:bold;vertical-align:top;">is_shell</td><td style="vertical-align:top;">:</td><td><div>False</div></td></tr><tr><td style="font-weight:bold;vertical-align:top;">method</td><td style="vertical-align:top;">:</td><td><div>GET</div></td></tr><tr><td style="font-weight:bold;vertical-align:top;">now</td><td style="vertical-align:top;">:</td><td><div>datetime.datetime(2020, 9, 30, 8, 49, 38, 792873)</div></td></tr><tr><td style="font-weight:bold;vertical-align:top;">raw_args</td><td style="vertical-align:top;">:</td><td><div></div></td></tr><tr><td style="font-weight:bold;vertical-align:top;">raw_extension</td><td style="vertical-align:top;">:</td><td><div>None</div></td></tr><tr><td style="font-weight:bold;vertical-align:top;">url</td><td style="vertical-align:top;">:</td><td><div>/prodigy/appadmin/hooks</div></td></tr><tr><td style="font-weight:bold;vertical-align:top;">utcnow</td><td style="vertical-align:top;">:</td><td><div>datetime.datetime(2020, 9, 30, 8, 49, 38, 792897)</div></td></tr><tr><td style="font-weight:bold;vertical-align:top;">wsgi</td><td style="vertical-align:top;">:</td><td><div>&lt;gluon.main.LazyWSGI object at 0x7f3bb697ba10&gt;</div></td></tr></table></div>'
tRp60
sS'frames'
p61
(lp62
(dp63
S'file'
p64
S'/home/rogoberto/web2py/gluon/restricted.py'
p65
sS'dump'
p66
(dp67
S'environment'
p68
S"{'A': <class 'gluon.html.A'>, 'ANY_OF': <class 'gluon.validators.ANY_OF'>, 'ASSIGNJS': <function ASSIGNJS>, 'AppConfig': <function AppConfig>, 'Auth': <class 'gluon.tools.Auth'>, 'B': <class 'gluon.html.B'>, 'BEAUTIFY': <class 'gluon.html.BEAUTIFY'>, 'BODY': <class 'gluon.html.BODY'>, 'BR': <class 'gluon.html.BR'>, 'BUTTON': <class 'gluon.html.BUTTON'>, ...}"
p69
sS'ccode'
p70
S'<code object <module> at 0x7f3bb71d50b0, file "/...eb2py/applications/prodigy/models/db.py", line 7>'
p71
ssS'lnum'
p72
I219
sS'lines'
p73
(dp74
I214
S'    if environment is None:'
p75
sI215
S'        environment = {}'
p76
sI216
S"    environment['__file__'] = layer"
p77
sI217
S"    environment['__name__'] = '__restricted__'"
p78
sI218
S'    try:'
p79
sI219
S'        exec(ccode, environment)'
p80
sI220
S'    except HTTP:'
p81
sI221
S'        raise'
p82
sI222
S'    except RestrictedError:'
p83
sI223
S'        # do not encapsulate (obfuscate) the original RestrictedError'
p84
ssS'call'
p85
S'(ccode=<code object <module> at 0x7f3bb71d50b0, file "/...eb2py/applications/prodigy/models/db.py", line 7>, environment={\'A\': <class \'gluon.html.A\'>, \'ANY_OF\': <class \'gluon.validators.ANY_OF\'>, \'ASSIGNJS\': <function ASSIGNJS>, \'AppConfig\': <function AppConfig>, \'Auth\': <class \'gluon.tools.Auth\'>, \'B\': <class \'gluon.html.B\'>, \'BEAUTIFY\': <class \'gluon.html.BEAUTIFY\'>, \'BODY\': <class \'gluon.html.BODY\'>, \'BR\': <class \'gluon.html.BR\'>, \'BUTTON\': <class \'gluon.html.BUTTON\'>, ...}, layer=\'/home/rogoberto/web2py/applications/prodigy/models/db.py\', scode=<code object <module> at 0x7f3bb71d50b0, file "/...eb2py/applications/prodigy/models/db.py", line 7>)'
p86
sS'func'
p87
S'restricted'
p88
sa(dp89
g64
S'/home/rogoberto/web2py/applications/prodigy/models/db.py'
p90
sg66
(dp91
S'builtinformat'
p92
S'<built-in function format>'
p93
ssg72
I204
sg73
(dp94
I199
S"\t\t\t\tField('valor_comissao', 'double',label='Valor Comiss\xc3\xa3o', notnull=True, default=0, writable=False, readable=False),"
p95
sI200
S"                Field('produtor_pago', 'boolean', writable=False, readable=False, default=False),"
p96
sI201
S"                Field('taxa_operadora', 'double',label='% Operadora', notnull=True, default=0, writable=False, readable=False),"
p97
sI202
S"                Field('confirmado', 'boolean', writable=False, readable=False, default=False),"
p98
sI203
S'                auth.signature,'
p99
sI204
S"                format='%(banco)s')"
p100
sI205
S''
sI206
S"db.cliente.cpf.requires  = IS_MATCH('^\\d{3}\\.?\\d{3}\\.?\\d{3}\\-?\\d{2}$', error_message='Formato 000.000.000-00'),"
p101
sI207
S''
sI208
S"db.operacao.cpf.requires  = IS_MATCH('^\\d{3}\\.?\\d{3}\\.?\\d{3}\\-?\\d{2}$', error_message='Formato 000.000.000-00'),"
p102
ssg85
S'()'
p103
sg87
S'<module>'
p104
sa(dp105
g64
S'/home/rogoberto/web2py/gluon/packages/dal/pydal/base.py'
p106
sg66
(dp107
S'fields'
p108
S'(<pydal.objects.Field object>, <pydal.objects.Field object>, <pydal.objects.Field object>, <pydal.objects.Field object>, <pydal.objects.Field object>, <pydal.objects.Field object>, <pydal.objects.Field object>, <pydal.objects.Field object>, <pydal.objects.Field object>, <pydal.objects.Field object>, <pydal.objects.Field object>, <pydal.objects.Field object>, <pydal.objects.Field object>, <pydal.objects.Field object>, <pydal.objects.Field object>, <pydal.objects.Field object>, <pydal.objects.Field object>, <pydal.objects.Field object>, <pydal.objects.Field object>, <pydal.objects.Field object>, ...)'
p109
sS'self'
p110
S'<DAL uri="sqlite://storage.sqlite">'
p111
sS'tablename'
p112
S"'operacao'"
p113
sS'kwargs'
p114
S"{'format': '%(banco)s'}"
p115
sS'table'
p116
S'undefined'
p117
sS'self.lazy_define_table'
p118
S'<bound method DAL.lazy_define_table of <DAL uri="sqlite://storage.sqlite">>'
p119
ssg72
I590
sg73
(dp120
I585
S'        if self._lazy_tables:'
p121
sI586
S'            if tablename not in self._LAZY_TABLES or redefine:'
p122
sI587
S'                self._LAZY_TABLES[tablename] = (tablename, fields, kwargs)'
p123
sI588
S'            table = None'
p124
sI589
S'        else:'
p125
sI590
S'            table = self.lazy_define_table(tablename, *fields, **kwargs)'
p126
sI591
S'        if tablename not in self.tables:'
p127
sI592
S'            self.tables.append(tablename)'
p128
sI593
S'        return table'
p129
sI594
S''
ssg85
S'(self=<DAL uri="sqlite://storage.sqlite">, tablename=\'operacao\', *fields=(<pydal.objects.Field object>, <pydal.objects.Field object>, <pydal.objects.Field object>, <pydal.objects.Field object>, <pydal.objects.Field object>, <pydal.objects.Field object>, <pydal.objects.Field object>, <pydal.objects.Field object>, <pydal.objects.Field object>, <pydal.objects.Field object>, <pydal.objects.Field object>, <pydal.objects.Field object>, <pydal.objects.Field object>, <pydal.objects.Field object>, <pydal.objects.Field object>, <pydal.objects.Field object>, <pydal.objects.Field object>, <pydal.objects.Field object>, <pydal.objects.Field object>, <pydal.objects.Field object>, ...), **kwargs={\'format\': \'%(banco)s\'})'
p130
sg87
S'define_table'
p131
sa(dp132
g64
S'/home/rogoberto/web2py/gluon/packages/dal/pydal/base.py'
p133
sg66
(dp134
S'polymodel'
p135
S'None'
p136
ssg72
I624
sg73
(dp137
I619
S'            try:'
p138
sI620
S'                GLOBAL_LOCKER.acquire()'
p139
sI621
S'                self._adapter.create_table('
p140
sI622
S'                    table, migrate=migrate,'
p141
sI623
S'                    fake_migrate=fake_migrate,'
p142
sI624
S'                    polymodel=polymodel)'
p143
sI625
S'            finally:'
p144
sI626
S'                GLOBAL_LOCKER.release()'
p145
sI627
S'        else:'
p146
sI628
S'            table._dbt = None'
p147
ssg85
S'(self=<DAL uri="sqlite://storage.sqlite">, tablename=\'operacao\', *fields=(<pydal.objects.Field object>, <pydal.objects.Field object>, <pydal.objects.Field object>, <pydal.objects.Field object>, <pydal.objects.Field object>, <pydal.objects.Field object>, <pydal.objects.Field object>, <pydal.objects.Field object>, <pydal.objects.Field object>, <pydal.objects.Field object>, <pydal.objects.Field object>, <pydal.objects.Field object>, <pydal.objects.Field object>, <pydal.objects.Field object>, <pydal.objects.Field object>, <pydal.objects.Field object>, <pydal.objects.Field object>, <pydal.objects.Field object>, <pydal.objects.Field object>, <pydal.objects.Field object>, ...), **kwargs={\'format\': \'%(banco)s\'})'
p148
sg87
S'lazy_define_table'
p149
sa(dp150
g64
S'/home/rogoberto/web2py/gluon/packages/dal/pydal/adapters/base.py'
p151
sg66
(dp152
S'self'
p153
S'<pydal.adapters.sqlite.SQLite object>'
p154
sS'args'
p155
S'(<Table operacao (id, cliente, tipo, tipo_operaca...reated_on, created_by, modified_on, modified_by)>,)'
p156
sS'self.migrator'
p157
S'<pydal.migrator.Migrator object>'
p158
sS'self.migrator.create_table'
p159
S'<bound method Migrator.create_table of <pydal.migrator.Migrator object>>'
p160
sS'kwargs'
p161
S"{'fake_migrate': False, 'migrate': True, 'polymodel': None}"
p162
ssg72
I798
sg73
(dp163
I800
S'    def _drop_table_cleanup(self, table):'
p164
sI801
S'        super(SQLAdapter, self)._drop_table_cleanup(table)'
p165
sI802
S'        if table._dbt:'
p166
sI793
S''
sI794
S'    def bulk_insert(self, table, items):'
p167
sI795
S'        return [self.insert(table, item) for item in items]'
p168
sI796
S''
sI797
S'    def create_table(self, *args, **kwargs):'
p169
sI798
S'        return self.migrator.create_table(*args, **kwargs)'
p170
sI799
S''
ssg85
S"(self=<pydal.adapters.sqlite.SQLite object>, *args=(<Table operacao (id, cliente, tipo, tipo_operaca...reated_on, created_by, modified_on, modified_by)>,), **kwargs={'fake_migrate': False, 'migrate': True, 'polymodel': None})"
p171
sg87
S'create_table'
p172
sa(dp173
g64
S'/home/rogoberto/web2py/gluon/packages/dal/pydal/migrator.py'
p174
sg66
(dp175
S'table'
p176
S'<Table operacao (id, cliente, tipo, tipo_operaca...reated_on, created_by, modified_on, modified_by)>'
p177
sS'table._dbt'
p178
S"'/home/rogoberto/web2py/applications/prodigy/data...s/c8b669d15150d7109e5f7ab36744a5b7_operacao.table'"
p179
sS'builtinRuntimeError'
p180
S"<type 'exceptions.RuntimeError'>"
p181
ssg72
I299
sg73
(dp182
I294
S"            tfile = self.file_open(table._dbt, 'rb')"
p183
sI295
S'            try:'
p184
sI296
S'                sql_fields_old = pickle.load(tfile)'
p185
sI297
S'            except EOFError:'
p186
sI298
S'                self.file_close(tfile)'
p187
sI299
S"                raise RuntimeError('File %s appears corrupted' % table._dbt)"
p188
sI300
S'            self.file_close(tfile)'
p189
sI301
S'            # add missing rnames'
p190
sI302
S'            for key, item in sql_fields_old.items():'
p191
sI303
S'                tmp = sql_fields.get(key)'
p192
ssg85
S'(self=<pydal.migrator.Migrator object>, table=<Table operacao (id, cliente, tipo, tipo_operaca...reated_on, created_by, modified_on, modified_by)>, migrate=True, fake_migrate=False, polymodel=None)'
p193
sg87
g172
sasS'pyver'
p194
S'Python 2.7.12: /usr/local/bin/uwsgi (prefix: /usr)'
p195
sS'session'
p196
g59
(S's\x1a\x00\x00\x00<div><table></table></div>'
tRp197
sS'etype'
p198
S"<type 'exceptions.RuntimeError'>"
p199
sS'date'
p200
S'Wed Sep 30 08:49:38 2020'
p201
sS'response'
p202
g59
(S's\x08\x1a\x00\x00<div><table><tr><td style="font-weight:bold;vertical-align:top;">body</td><td style="vertical-align:top;">:</td><td><div>&lt;cStringIO.StringO object at 0x7f3bb6d4bb90&gt;</div></td></tr><tr><td style="font-weight:bold;vertical-align:top;">cookies</td><td style="vertical-align:top;">:</td><td><div><table><tr><td style="font-weight:bold;vertical-align:top;">session_id_prodigy</td><td style="vertical-align:top;">:</td><td><div>177.37.225.149-1a5690ca-e84e-47ce-b91c-be3df70ff9e1<table><tr><td style="font-weight:bold;vertical-align:top;">comment</td><td style="vertical-align:top;">:</td><td><div></div></td></tr><tr><td style="font-weight:bold;vertical-align:top;">domain</td><td style="vertical-align:top;">:</td><td><div></div></td></tr><tr><td style="font-weight:bold;vertical-align:top;">expires</td><td style="vertical-align:top;">:</td><td><div></div></td></tr><tr><td style="font-weight:bold;vertical-align:top;">httponly</td><td style="vertical-align:top;">:</td><td><div></div></td></tr><tr><td style="font-weight:bold;vertical-align:top;">max-age</td><td style="vertical-align:top;">:</td><td><div></div></td></tr><tr><td style="font-weight:bold;vertical-align:top;">path</td><td style="vertical-align:top;">:</td><td><div>/</div></td></tr><tr><td style="font-weight:bold;vertical-align:top;">secure</td><td style="vertical-align:top;">:</td><td><div></div></td></tr><tr><td style="font-weight:bold;vertical-align:top;">version</td><td style="vertical-align:top;">:</td><td><div></div></td></tr></table></div></td></tr></table></div></td></tr><tr><td style="font-weight:bold;vertical-align:top;">delimiters</td><td style="vertical-align:top;">:</td><td><div><table><tr><td><div>{{</div></td></tr><tr><td><div>}}</div></td></tr></table></div></td></tr><tr><td style="font-weight:bold;vertical-align:top;">files</td><td style="vertical-align:top;">:</td><td><div><table></table></div></td></tr><tr><td style="font-weight:bold;vertical-align:top;">flash</td><td style="vertical-align:top;">:</td><td><div></div></td></tr><tr><td style="font-weight:bold;vertical-align:top;">form_label_separator</td><td style="vertical-align:top;">:</td><td><div></div></td></tr><tr><td style="font-weight:bold;vertical-align:top;">formstyle</td><td style="vertical-align:top;">:</td><td><div>bootstrap4_inline</div></td></tr><tr><td style="font-weight:bold;vertical-align:top;">generic_patterns</td><td style="vertical-align:top;">:</td><td><div><table></table></div></td></tr><tr><td style="font-weight:bold;vertical-align:top;">google_analytics_id</td><td style="vertical-align:top;">:</td><td><div>None</div></td></tr><tr><td style="font-weight:bold;vertical-align:top;">headers</td><td style="vertical-align:top;">:</td><td><div><table><tr><td style="font-weight:bold;vertical-align:top;">X-Powered-By</td><td style="vertical-align:top;">:</td><td><div>web2py</div></td></tr></table></div></td></tr><tr><td style="font-weight:bold;vertical-align:top;">menu</td><td style="vertical-align:top;">:</td><td><div><table></table></div></td></tr><tr><td style="font-weight:bold;vertical-align:top;">meta</td><td style="vertical-align:top;">:</td><td><div><table><tr><td style="font-weight:bold;vertical-align:top;">author</td><td style="vertical-align:top;">:</td><td><div>Your Name &lt;you@example.com&gt;</div></td></tr><tr><td style="font-weight:bold;vertical-align:top;">description</td><td style="vertical-align:top;">:</td><td><div>a cool new app</div></td></tr><tr><td style="font-weight:bold;vertical-align:top;">generator</td><td style="vertical-align:top;">:</td><td><div>Web2py Web Framework</div></td></tr><tr><td style="font-weight:bold;vertical-align:top;">keywords</td><td style="vertical-align:top;">:</td><td><div><table><tr><td><div>web2py</div></td></tr><tr><td><div>python</div></td></tr><tr><td><div>framework</div></td></tr></table></div></td></tr></table></div></td></tr><tr><td style="font-weight:bold;vertical-align:top;">models_to_run</td><td style="vertical-align:top;">:</td><td><div><table><tr><td><div>^\\w+\\.py$</div></td></tr><tr><td><div>^appadmin/\\w+\\.py$</div></td></tr><tr><td><div>^appadmin/hooks/\\w+\\.py$</div></td></tr></table></div></td></tr><tr><td style="font-weight:bold;vertical-align:top;">postprocessing</td><td style="vertical-align:top;">:</td><td><div><table></table></div></td></tr><tr><td style="font-weight:bold;vertical-align:top;">session_client</td><td style="vertical-align:top;">:</td><td><div>177.37.225.149</div></td></tr><tr><td style="font-weight:bold;vertical-align:top;">session_cookie_compression_level</td><td style="vertical-align:top;">:</td><td><div>None</div></td></tr><tr><td style="font-weight:bold;vertical-align:top;">session_cookie_expires</td><td style="vertical-align:top;">:</td><td><div>None</div></td></tr><tr><td style="font-weight:bold;vertical-align:top;">session_data_name</td><td style="vertical-align:top;">:</td><td><div>session_data_prodigy</div></td></tr><tr><td style="font-weight:bold;vertical-align:top;">session_file</td><td style="vertical-align:top;">:</td><td><div>None</div></td></tr><tr><td style="font-weight:bold;vertical-align:top;">session_filename</td><td style="vertical-align:top;">:</td><td><div>/home/rogoberto/web2py/applications/prodigy/sessions/177.37.225.149-1a5690ca-e84e-47ce-b91c-be3df70ff9e1</div></td></tr><tr><td style="font-weight:bold;vertical-align:top;">session_hash</td><td style="vertical-align:top;">:</td><td><div>c0762cbf4baf7f9af97c051e7fcb8083</div></td></tr><tr><td style="font-weight:bold;vertical-align:top;">session_id</td><td style="vertical-align:top;">:</td><td><div>177.37.225.149-1a5690ca-e84e-47ce-b91c-be3df70ff9e1</div></td></tr><tr><td style="font-weight:bold;vertical-align:top;">session_id_name</td><td style="vertical-align:top;">:</td><td><div>session_id_prodigy</div></td></tr><tr><td style="font-weight:bold;vertical-align:top;">session_masterapp</td><td style="vertical-align:top;">:</td><td><div>prodigy</div></td></tr><tr><td style="font-weight:bold;vertical-align:top;">session_new</td><td style="vertical-align:top;">:</td><td><div>True</div></td></tr><tr><td style="font-weight:bold;vertical-align:top;">session_storage_type</td><td style="vertical-align:top;">:</td><td><div>file</div></td></tr><tr><td style="font-weight:bold;vertical-align:top;">show_toolbar</td><td style="vertical-align:top;">:</td><td><div>False</div></td></tr><tr><td style="font-weight:bold;vertical-align:top;">status</td><td style="vertical-align:top;">:</td><td><div>200</div></td></tr><tr><td style="font-weight:bold;vertical-align:top;">view</td><td style="vertical-align:top;">:</td><td><div>appadmin/hooks.html</div></td></tr></table></div>'
tRp203
sS'locals'
p204
(dp205
S'rtablename'
p206
S"'auth_user'"
p207
sS'referenced'
p208
S"'auth_user'"
p209
sS'dbpath'
p210
S"'/home/rogoberto/web2py/applications/prodigy/databases'"
p211
sS'migrate'
p212
S'True'
p213
sS'constraint_name'
p214
S"'operacao_modified_by__constraint'"
p215
sS'table'
p216
S'<Table operacao (id, cliente, tipo, tipo_operaca...reated_on, created_by, modified_on, modified_by)>'
p217
sS'query'
p218
S'\'CREATE TABLE "operacao"(\\n    "id" INTEGER PRIMAR...ERENCES "auth_user" ("id") ON DELETE CASCADE  \\n);\''
p219
sS'real_referenced'
p220
S'\'"auth_user"\''
p221
sS'postcreation_fields'
p222
S'[]'
p223
sS'field_type'
p224
S"'reference auth_user'"
p225
sS'field'
p226
S'<pydal.objects.Field object>'
p227
sS'self'
p228
S'<pydal.migrator.Migrator object>'
p229
sS'type_name'
p230
S"'reference'"
p231
sS'tablename'
p232
S"'operacao'"
p233
sS'not_null'
p234
S"'NOT NULL DEFAULT 0.0'"
p235
sS'ftype'
p236
S'\'INTEGER REFERENCES "auth_user" ("id") ON DELETE CASCADE  \''
p237
sS'rtable'
p238
S'<Table auth_user (id, first_name, last_name, ema...ration_key, reset_password_key, registration_id)>'
p239
sS'id_fieldname'
p240
S'\'"id"\''
p241
sS'polymodel'
p242
S'None'
p243
sS'ftype_info'
p244
S'{\'constraint_name\': \'"operacao_modified_by__constraint"\', \'field_name\': \'"modified_by"\', \'foreign_key\': \'"auth_user" ("id")\', \'index_name\': \'"modified_by__idx"\', \'null\': \'\', \'on_delete_action\': \'CASCADE\', \'unique\': \'\'}'
p245
sS'rfieldname'
p246
S"'id'"
p247
sS'tfile'
p248
S'<pydal.contrib.portalocker.LockedFile object>'
p249
sS'db'
p250
S'<DAL uri="sqlite://storage.sqlite">'
p251
sS'fake_migrate'
p252
S'False'
p253
sS'sql_fields'
p254
S'{\'agencia\': {\'length\': 512, \'notnull\': True, \'raw_rname\': \'agencia\', \'rname\': \'"agencia"\', \'sortable\': 16, \'sql\': \'CHAR(512) NOT NULL\', \'type\': \'string\', \'unique\': False}, \'banco\': {\'length\': 512, \'notnull\': True, \'raw_rname\': \'banco\', \'rname\': \'"banco"\', \'sortable\': 15, \'sql\': \'CHAR(512) NOT NULL\', \'type\': \'string\', \'unique\': False}, \'bonus\': {\'length\': 512, \'notnull\': True, \'raw_rname\': \'bonus\', \'rname\': \'"bonus"\', \'sortable\': 12, \'sql\': \'DOUBLE NOT NULL\', \'type\': \'double\', \'unique\': False}, \'cliente\': {\'length\': 512, \'notnull\': False, \'raw_rname\': \'cliente\', \'rname\': \'"cliente"\', \'sortable\': 2, \'sql\': \'INTEGER REFERENCES "cliente" ("id") ON DELETE CASCADE  \', \'type\': \'reference cliente\', \'unique\': False}, \'confirmado\': {\'length\': 512, \'notnull\': False, \'raw_rname\': \'confirmado\', \'rname\': \'"confirmado"\', \'sortable\': 26, \'sql\': \'CHAR(1)\', \'type\': \'boolean\', \'unique\': False}, \'conta\': {\'length\': 512, \'notnull\': True, \'raw_rname\': \'conta\', \'rname\': \'"conta"\', \'sortable\': 17, \'sql\': \'CHAR(512) NOT NULL\', \'type\': \'string\', \'unique\': False}, \'cpf\': {\'length\': 512, \'notnull\': False, \'raw_rname\': \'cpf\', \'rname\': \'"cpf"\', \'sortable\': 6, \'sql\': \'CHAR(512)\', \'type\': \'string\', \'unique\': False}, \'cpf_conta\': {\'length\': 512, \'notnull\': True, \'raw_rname\': \'cpf_conta\', \'rname\': \'"cpf_conta"\', \'sortable\': 21, \'sql\': \'CHAR(512) NOT NULL\', \'type\': \'string\', \'unique\': False}, \'created_by\': {\'length\': 512, \'notnull\': False, \'raw_rname\': \'created_by\', \'rname\': \'"created_by"\', \'sortable\': 29, \'sql\': \'INTEGER REFERENCES "auth_user" ("id") ON DELETE CASCADE  \', \'type\': \'reference auth_user\', \'unique\': False}, \'created_on\': {\'length\': 512, \'notnull\': False, \'raw_rname\': \'created_on\', \'rname\': \'"created_on"\', \'sortable\': 28, \'sql\': \'TIMESTAMP\', \'type\': \'datetime\', \'unique\': False}, ...}'
p255
sS'field_name'
p256
S"'modified_by'"
p257
sS'types'
p258
S"{'big-id': 'INTEGER PRIMARY KEY AUTOINCREMENT', 'big-reference': 'INTEGER REFERENCES %(foreign_key)s ON DELETE %(on_delete_action)s %(null)s %(unique)s', 'bigint': 'INTEGER', 'blob': 'BLOB', 'boolean': 'CHAR(1)', 'date': 'DATE', 'datetime': 'TIMESTAMP', 'decimal': 'DOUBLE', 'double': 'DOUBLE', 'float': 'DOUBLE', ...}"
p259
sS'sortable'
p260
S'31'
p261
sS'sql_fields_aux'
p262
S'{\'agencia\': {\'sql\': "CHAR(512) NOT NULL DEFAULT \'000-0\'"}, \'banco\': {\'sql\': "CHAR(512) NOT NULL DEFAULT \'000 \\xe2\\x80\\x93 Em Esp\\xc3\\xa9cie.\'"}, \'bonus\': {\'sql\': \'DOUBLE NOT NULL DEFAULT 0.0\'}, \'cliente\': {\'sql\': \'INTEGER REFERENCES "cliente" ("id") ON DELETE CASCADE  \'}, \'confirmado\': {\'sql\': \'CHAR(1)\'}, \'conta\': {\'sql\': "CHAR(512) NOT NULL DEFAULT \'000-0\'"}, \'cpf\': {\'sql\': \'CHAR(512)\'}, \'cpf_conta\': {\'sql\': "CHAR(512) NOT NULL DEFAULT \'\'"}, \'created_by\': {\'sql\': \'INTEGER REFERENCES "auth_user" ("id") ON DELETE CASCADE  \'}, \'created_on\': {\'sql\': \'TIMESTAMP\'}, ...}'
p263
sS'TFK'
p264
g19
sS'fields'
p265
S'\'"id" INTEGER PRIMARY KEY AUTOINCREMENT,\\n    "cli...REFERENCES "auth_user" ("id") ON DELETE CASCADE  \''
p266
sS'uri'
p267
S"'sqlite://storage.sqlite'"
p268
sS'rfield'
p269
S'<pydal.objects.Field object>'
p270
sS'other'
p271
S"';'"
p272
sssS'traceback'
p273
S'Traceback (most recent call last):\n  File "/home/rogoberto/web2py/gluon/restricted.py", line 219, in restricted\n    exec(ccode, environment)\n  File "/home/rogoberto/web2py/applications/prodigy/models/db.py", line 204, in <module>\n    format=\'%(banco)s\')\n  File "/home/rogoberto/web2py/gluon/packages/dal/pydal/base.py", line 590, in define_table\n    table = self.lazy_define_table(tablename, *fields, **kwargs)\n  File "/home/rogoberto/web2py/gluon/packages/dal/pydal/base.py", line 624, in lazy_define_table\n    polymodel=polymodel)\n  File "/home/rogoberto/web2py/gluon/packages/dal/pydal/adapters/base.py", line 798, in create_table\n    return self.migrator.create_table(*args, **kwargs)\n  File "/home/rogoberto/web2py/gluon/packages/dal/pydal/migrator.py", line 299, in create_table\n    raise RuntimeError(\'File %s appears corrupted\' % table._dbt)\nRuntimeError: File /home/rogoberto/web2py/applications/prodigy/databases/c8b669d15150d7109e5f7ab36744a5b7_operacao.table appears corrupted\n'
p274
s.